 dosbox_emu

 Timestamp is 51823e51 (Thu May 02 21:22:09 2013)

 Preferred load address is 10000000

 Start         Length     Name                   Class
 0001:00000000 00121ef8H .text                   CODE
 0001:00121ef8 00009030H .text$yc                CODE
 0001:0012af28 00008860H .text$yd                CODE
 0002:00000000 00000104H .CRT$XCA                DATA
 0002:00000104 00000104H .CRT$XCL                DATA
 0002:00000208 000001c6H .CRT$XCU                DATA
 0002:000003d0 00000104H .CRT$XCZ                DATA
 0002:000004d4 00000104H .CRT$XIA                DATA
 0002:000005d8 00000104H .CRT$XIAA               DATA
 0002:000006dc 00000104H .CRT$XIC                DATA
 0002:000007e0 00000104H .CRT$XIZ                DATA
 0002:000008f0 0001333aH .rdata                  DATA
 0002:00013c2c 00000169H .rdata$debug            DATA
 0002:00013d98 00000fc2H .rdata$r                DATA
 0002:00014d5c 00000104H .rtc$IAA                DATA
 0002:00014e60 00000156H .rtc$IMZ                DATA
 0002:00014fb8 00000104H .rtc$IZZ                DATA
 0002:000150bc 00000104H .rtc$TAA                DATA
 0002:000151c0 00000156H .rtc$TMZ                DATA
 0002:00015318 00000104H .rtc$TZZ                DATA
 0002:00015420 0000f6d0H .xdata                  DATA
 0002:00024af0 00000222H .xdata$x                DATA
 0002:00024d20 00000178H .edata                  DATA
 0003:00000000 0000600aH .data                   DATA
 0003:00006010 001c2b80H .bss                    DATA
 0004:00000000 00005980H .pdata                  DATA
 0005:00000000 000000a0H .idata$2                DATA
 0005:000000a0 00000014H .idata$3                DATA
 0005:000000b4 000005d8H .idata$4                DATA
 0005:0000068c 000005d8H .idata$5                DATA
 0005:00000c64 0000220dH .idata$6                DATA
 0006:00000000 00000169H .rsrc$01                DATA
 0006:00000170 000002ccH .rsrc$02                DATA

  Address         Publics by Value              Rva+Base       Lib:Object

 0000:00000000       ___safe_se_handler_table   00000000     <absolute>
 0000:00000000       ___safe_se_handler_count   00000000     <absolute>
 0000:00000001       _fltused                   00000001     <absolute>
 0000:00000000       __ImageBase                10000000     <linker-defined>
 0000:00000000       _load_config_used          10000000     <linker-defined>
 0001:00008350       ?CALLBACK_Allocate@@YAIXZ  10009350 f   callback.obj
 0001:000083c0       ?CALLBACK_DeAllocate@@YAXI@Z 100093c0 f   callback.obj
 0001:000083ec       ?CALLBACK_Idle@@YAXXZ      100093ec f   callback.obj
 0001:000084c0       ?CALLBACK_RunRealFar@@YAXGG@Z 100094c0 f   callback.obj
 0001:000085a0       ?CALLBACK_RunRealInt@@YAXE@Z 100095a0 f   callback.obj
 0001:00008614       ?CALLBACK_SZF@@YAX_N@Z     10009614 f   callback.obj
 0001:000086a0       ?CALLBACK_SCF@@YAX_N@Z     100096a0 f   callback.obj
 0001:0000872c       ?CALLBACK_SIF@@YAX_N@Z     1000972c f   callback.obj
 0001:000087b8       ?CALLBACK_SetDescription@@YAXIPBD@Z 100097b8 f   callback.obj
 0001:00008830       ?CALLBACK_GetDescription@@YAPBDI@Z 10009830 f   callback.obj
 0001:00008870       ?CALLBACK_SetupExtra@@YAIIIK_N@Z 10009870 f   callback.obj
 0001:00009294       ?CALLBACK_Setup@@YA_NIP6AIXZIPBD@Z 1000a294 f   callback.obj
 0001:00009314       ?CALLBACK_Setup@@YAIIP6AIXZIKPBD@Z 1000a314 f   callback.obj
 0001:00009394       ?CALLBACK_RemoveSetup@@YAXI@Z 1000a394 f   callback.obj
 0001:000093dc       ??1CALLBACK_HandlerObject@@QAA@XZ 1000a3dc f   callback.obj
 0001:00009510       ?Install@CALLBACK_HandlerObject@@QAAXP6AIXZIPBD@Z 1000a510 f   callback.obj
 0001:00009570       ?Install@CALLBACK_HandlerObject@@QAAXP6AIXZIKPBD@Z 1000a570 f   callback.obj
 0001:000095d8       ?Allocate@CALLBACK_HandlerObject@@QAAXP6AIXZPBD@Z 1000a5d8 f   callback.obj
 0001:0000964c       ?Set_RealVec@CALLBACK_HandlerObject@@QAAXE@Z 1000a64c f   callback.obj
 0001:000096b0       ?CALLBACK_Init@@YAXPAVSection@@@Z 1000a6b0 f   callback.obj
 0001:0000a600       ?Get_RealPointer@CALLBACK_HandlerObject@@QAAKXZ 1000b600 f i callback.obj
 0001:0000a63c       ??0LOG@@QAA@W4LOG_TYPES@@W4LOG_SEVERITIES@@@Z 1000b63c f i callback.obj
 0001:0000a66c       ??RLOG@@QAAXPBDN0@Z        1000b66c f i callback.obj
 0001:0000a698       ??RLOG@@QAAXPBDN@Z         1000b698 f i callback.obj
 0001:0000a6c4       ?Clear@CacheBlockDynRec@@QAAXXZ 1000b6c4 f   core_dynrec.obj
 0001:0000a8b8       ?mem_readb_checked_drc@@YA_NK@Z 1000b8b8 f   core_dynrec.obj
 0001:0000a8f8       ?mem_writeb_checked_drc@@YA_NKE@Z 1000b8f8 f   core_dynrec.obj
 0001:0000a92c       ?mem_readw_checked_drc@@YA_NK@Z 1000b92c f   core_dynrec.obj
 0001:0000a96c       ?mem_readd_checked_drc@@YA_NK@Z 1000b96c f   core_dynrec.obj
 0001:0000a9a8       ?mem_writew_checked_drc@@YA_NKG@Z 1000b9a8 f   core_dynrec.obj
 0001:0000a9dc       ?mem_writed_checked_drc@@YA_NKK@Z 1000b9dc f   core_dynrec.obj
 0001:0000aa0c       ?LinkBlocks@@YAPAVCacheBlockDynRec@@W4BlockReturn@@@Z 1000ba0c f   core_dynrec.obj
 0001:0000aaac       _InterlockedIncrement8     1000baac f   core_dynrec.obj
 0001:0000aac8       _InterlockedDecrement8     1000bac8 f   core_dynrec.obj
 0001:0000aae4       PLI                        1000bae4 f   core_dynrec.obj
 0001:0000aaec       ?CPU_Core_Dynrec_Run@@YAHXZ 1000baec f   core_dynrec.obj
 0001:0000ad90       ?CPU_Core_Dynrec_Trap_Run@@YAHXZ 1000bd90 f   core_dynrec.obj
 0001:0000ae00       ?CPU_Core_Dynrec_Init@@YAXXZ 1000be00 f   core_dynrec.obj
 0001:0000ae0c       ?CPU_Core_Dynrec_Cache_Init@@YAX_N@Z 1000be0c f   core_dynrec.obj
 0001:0000ae28       ?CPU_Core_Dynrec_Cache_Close@@YAXXZ 1000be28 f   core_dynrec.obj
 0001:00022714       ??RLOG@@QAAXPBD@Z          10023714 f i core_dynrec.obj
 0001:0002272c       ?DelCacheBlock@CodePageHandlerDynRec@@QAAXPAVCacheBlockDynRec@@@Z 1002372c f i core_dynrec.obj
 0001:00022990       ?FindCacheBlock@CodePageHandlerDynRec@@QAAPAVCacheBlockDynRec@@I@Z 10023990 f i core_dynrec.obj
 0001:00022a08       ?LinkTo@CacheBlockDynRec@@QAAXIPAV1@@Z 10023a08 f i core_dynrec.obj
 0001:00022ab4       ??0_Generic_error_category@std@@QAA@XZ 10023ab4 f i core_dynrec.obj
 0001:00022afc       ??0_Iostream_error_category@std@@QAA@XZ 10023afc f i core_dynrec.obj
 0001:00022b44       ??0_System_error_category@std@@QAA@XZ 10023b44 f i core_dynrec.obj
 0001:00022b8c       ?ClearRelease@CodePageHandlerDynRec@@QAAXXZ 10023b8c f i core_dynrec.obj
 0001:00022c24       ?SetupAt@CodePageHandlerDynRec@@QAAXIPAVPageHandler@@@Z 10023c24 f i core_dynrec.obj
 0001:00022d10       ?AddCacheBlock@CodePageHandlerDynRec@@QAAXPAVCacheBlockDynRec@@@Z 10023d10 f i core_dynrec.obj
 0001:00022db4       ??0CodePageHandlerDynRec@@QAA@XZ 10023db4 f i core_dynrec.obj
 0001:00022e0c       ??0error_category@std@@QAA@XZ 10023e0c f i core_dynrec.obj
 0001:00022e48       ??_E_Generic_error_category@std@@UAAPAXI@Z 10023e48 f i core_dynrec.obj
 0001:00022e48       ??_G_Generic_error_category@std@@UAAPAXI@Z 10023e48 f i core_dynrec.obj
 0001:00022e90       ?name@_Generic_error_category@std@@UBAPBDXZ 10023e90 f i core_dynrec.obj
 0001:00022ec4       ?message@_Generic_error_category@std@@UBA?AV?$basic_string@DU?$char_traits@D@std@@V?$allocator@D@2@@2@H@Z 10023ec4 f i core_dynrec.obj
 0001:00022f44       ?default_error_condition@error_category@std@@UBA?AVerror_condition@2@H@Z 10023f44 f i core_dynrec.obj
 0001:00022f80       ?equivalent@error_category@std@@UBA_NABVerror_code@2@H@Z 10023f80 f i core_dynrec.obj
 0001:00023000       ?equivalent@error_category@std@@UBA_NHABVerror_condition@2@@Z 10024000 f i core_dynrec.obj
 0001:00023060       ??1_Generic_error_category@std@@UAA@XZ 10024060 f i core_dynrec.obj
 0001:00023080       ??_G_Iostream_error_category@std@@UAAPAXI@Z 10024080 f i core_dynrec.obj
 0001:00023080       ??_E_Iostream_error_category@std@@UAAPAXI@Z 10024080 f i core_dynrec.obj
 0001:000230c8       ?name@_Iostream_error_category@std@@UBAPBDXZ 100240c8 f i core_dynrec.obj
 0001:000230fc       ?message@_Iostream_error_category@std@@UBA?AV?$basic_string@DU?$char_traits@D@std@@V?$allocator@D@2@@2@H@Z 100240fc f i core_dynrec.obj
 0001:0002317c       ??1_Iostream_error_category@std@@UAA@XZ 1002417c f i core_dynrec.obj
 0001:0002319c       ??_E_System_error_category@std@@UAAPAXI@Z 1002419c f i core_dynrec.obj
 0001:0002319c       ??_G_System_error_category@std@@UAAPAXI@Z 1002419c f i core_dynrec.obj
 0001:000231e4       ?name@_System_error_category@std@@UBAPBDXZ 100241e4 f i core_dynrec.obj
 0001:00023218       ?message@_System_error_category@std@@UBA?AV?$basic_string@DU?$char_traits@D@std@@V?$allocator@D@2@@2@H@Z 10024218 f i core_dynrec.obj
 0001:00023298       ?default_error_condition@_System_error_category@std@@UBA?AVerror_condition@2@H@Z 10024298 f i core_dynrec.obj
 0001:00023318       ??1_System_error_category@std@@UAA@XZ 10024318 f i core_dynrec.obj
 0001:00023338       ?Release@CodePageHandlerDynRec@@QAAXXZ 10024338 f i core_dynrec.obj
 0001:00023434       ??RLOG@@QAAXPBDNN@Z        10024434 f i core_dynrec.obj
 0001:00023468       ??0PageHandler@@QAA@XZ     10024468 f i core_dynrec.obj
 0001:000234a4       ??_ECodePageHandlerDynRec@@UAAPAXI@Z 100244a4 f i core_dynrec.obj
 0001:000234a4       ??_GCodePageHandlerDynRec@@UAAPAXI@Z 100244a4 f i core_dynrec.obj
 0001:000234ec       ?writeb@CodePageHandlerDynRec@@UAAXKI@Z 100244ec f i core_dynrec.obj
 0001:00023674       ?writew@CodePageHandlerDynRec@@UAAXKI@Z 10024674 f i core_dynrec.obj
 0001:00023800       ?writed@CodePageHandlerDynRec@@UAAXKI@Z 10024800 f i core_dynrec.obj
 0001:00023984       ?GetHostReadPt@CodePageHandlerDynRec@@UAAPAEI@Z 10024984 f i core_dynrec.obj
 0001:000239f4       ?GetHostWritePt@CodePageHandlerDynRec@@UAAPAEI@Z 100249f4 f i core_dynrec.obj
 0001:00023a38       ?writeb_checked@CodePageHandlerDynRec@@UAA_NKI@Z 10024a38 f i core_dynrec.obj
 0001:00023bfc       ?writew_checked@CodePageHandlerDynRec@@UAA_NKI@Z 10024bfc f i core_dynrec.obj
 0001:00023dc4       ?writed_checked@CodePageHandlerDynRec@@UAA_NKI@Z 10024dc4 f i core_dynrec.obj
 0001:00023f7c       ??_Gerror_category@std@@UAAPAXI@Z 10024f7c f i core_dynrec.obj
 0001:00023f7c       ??_Eerror_category@std@@UAAPAXI@Z 10024f7c f i core_dynrec.obj
 0001:00023fc4       ??0?$basic_string@DU?$char_traits@D@std@@V?$allocator@D@2@@std@@QAA@PBD@Z 10024fc4 f i core_dynrec.obj
 0001:0002403c       ??0error_condition@std@@QAA@HABVerror_category@1@@Z 1002503c f i core_dynrec.obj
 0001:0002407c       ?category@error_code@std@@QBAABVerror_category@2@XZ 1002507c f i core_dynrec.obj
 0001:000240b0       ??8error_category@std@@QBA_NABV01@@Z 100250b0 f i core_dynrec.obj
 0001:000240fc       ?value@error_code@std@@QBAHXZ 100250fc f i core_dynrec.obj
 0001:0002412c       ??8error_condition@std@@QBA_NABV01@@Z 1002512c f i core_dynrec.obj
 0001:000241c0       ??1error_category@std@@UAA@XZ 100251c0 f i core_dynrec.obj
 0001:000241e4       ?generic_category@std@@YAABVerror_category@1@XZ 100251e4 f i core_dynrec.obj
 0001:00024214       ?system_category@std@@YAABVerror_category@1@XZ 10025214 f i core_dynrec.obj
 0001:00024244       ?AddCrossBlock@CodePageHandlerDynRec@@QAAXPAVCacheBlockDynRec@@@Z 10025244 f i core_dynrec.obj
 0001:000242b4       ??_GPageHandler@@UAAPAXI@Z 100252b4 f i core_dynrec.obj
 0001:000242b4       ??_EPageHandler@@UAAPAXI@Z 100252b4 f i core_dynrec.obj
 0001:000242fc       ??1CodePageHandlerDynRec@@UAA@XZ 100252fc f i core_dynrec.obj
 0001:0002431c       ?InvalidateRange@CodePageHandlerDynRec@@QAA_NII@Z 1002531c f i core_dynrec.obj
 0001:00024494       ??0?$allocator@D@std@@QAA@XZ 10025494 f i core_dynrec.obj
 0001:000244c4       ??0?$_String_alloc@$0A@U?$_String_base_types@DV?$allocator@D@std@@@std@@@std@@QAA@ABV?$allocator@D@1@@Z 100254c4 f i core_dynrec.obj
 0001:00024520       ?_Tidy@?$basic_string@DU?$char_traits@D@std@@V?$allocator@D@2@@std@@QAAX_NI@Z 10025520 f i core_dynrec.obj
 0001:000245e0       ?assign@?$basic_string@DU?$char_traits@D@std@@V?$allocator@D@2@@std@@QAAAAV12@PBD@Z 100255e0 f i core_dynrec.obj
 0001:00024640       ??1?$_String_alloc@$0A@U?$_String_base_types@DV?$allocator@D@std@@@std@@@std@@QAA@XZ 10025640 f i core_dynrec.obj
 0001:00024668       ?category@error_condition@std@@QBAABVerror_category@2@XZ 10025668 f i core_dynrec.obj
 0001:0002469c       ?value@error_condition@std@@QBAHXZ 1002569c f i core_dynrec.obj
 0001:000246cc       ??1PageHandler@@UAA@XZ     100256cc f i core_dynrec.obj
 0001:000246f0       ??0?$_String_val@U?$_Simple_types@D@std@@@std@@QAA@XZ 100256f0 f i core_dynrec.obj
 0001:0002474c       ?_Alloc_proxy@?$_String_alloc@$0A@U?$_String_base_types@DV?$allocator@D@std@@@std@@@std@@QAAXXZ 1002574c f i core_dynrec.obj
 0001:000247d0       ??1?$_String_val@U?$_Simple_types@D@std@@@std@@QAA@XZ 100257d0 f i core_dynrec.obj
 0001:000247f8       ?_Getal@?$_String_alloc@$0A@U?$_String_base_types@DV?$allocator@D@std@@@std@@@std@@QBA?AU?$_Wrap_alloc@V?$allocator@D@std@@@2@XZ 100257f8 f i core_dynrec.obj
 0001:0002482c       ??$destroy@PAD@?$_Wrap_alloc@V?$allocator@D@std@@@std@@QAAXPAPAD@Z 1002582c f i core_dynrec.obj
 0001:0002484c       ??$addressof@D@std@@YAPADAAD@Z 1002584c f i core_dynrec.obj
 0001:0002487c       ?copy@?$char_traits@D@std@@SAPADPADPBDI@Z 1002587c f i core_dynrec.obj
 0001:000248d4       ?deallocate@?$_Wrap_alloc@V?$allocator@D@std@@@std@@QAAXPADI@Z 100258d4 f i core_dynrec.obj
 0001:000248f8       ?_Eos@?$basic_string@DU?$char_traits@D@std@@V?$allocator@D@2@@std@@QAAXI@Z 100258f8 f i core_dynrec.obj
 0001:00024954       ??$_Debug_pointer@D@std@@YAXPBDPB_WI@Z 10025954 f i core_dynrec.obj
 0001:0002498c       ?length@?$char_traits@D@std@@SAIPBD@Z 1002598c f i core_dynrec.obj
 0001:000249e4       ?assign@?$basic_string@DU?$char_traits@D@std@@V?$allocator@D@2@@std@@QAAAAV12@PBDI@Z 100259e4 f i core_dynrec.obj
 0001:00024ab4       ?_Free_proxy@?$_String_alloc@$0A@U?$_String_base_types@DV?$allocator@D@std@@@std@@@std@@QAAXXZ 10025ab4 f i core_dynrec.obj
 0001:00024b34       ??0?$allocator@U_Container_proxy@std@@@std@@QAA@XZ 10025b34 f i core_dynrec.obj
 0001:00024b64       ?allocate@?$allocator@U_Container_proxy@std@@@std@@QAAPAU_Container_proxy@2@I@Z 10025b64 f i core_dynrec.obj
 0001:00024ba0       ??0_Container_proxy@std@@QAA@XZ 10025ba0 f i core_dynrec.obj
 0001:00024be0       ??$construct@U_Container_proxy@std@@U12@@?$allocator@U_Container_proxy@std@@@std@@QAAXPAU_Container_proxy@1@$$QAU21@@Z 10025be0 f i core_dynrec.obj
 0001:00024c68       ??0?$_Wrap_alloc@V?$allocator@D@std@@@std@@QAA@XZ 10025c68 f i core_dynrec.obj
 0001:00024c9c       ??$destroy@PAD@?$allocator_traits@V?$allocator@D@std@@@std@@SAXAAV?$allocator@D@1@PAPAD@Z 10025c9c f i core_dynrec.obj
 0001:00024cbc       ?deallocate@?$allocator@D@std@@QAAXPADI@Z 10025cbc f i core_dynrec.obj
 0001:00024cdc       ?_Myptr@?$_String_val@U?$_Simple_types@D@std@@@std@@QAAPADXZ 10025cdc f i core_dynrec.obj
 0001:00024d38       ?assign@?$char_traits@D@std@@SAXAADABD@Z 10025d38 f i core_dynrec.obj
 0001:00024d5c       ?_Inside@?$basic_string@DU?$char_traits@D@std@@V?$allocator@D@2@@std@@QAA_NPBD@Z 10025d5c f i core_dynrec.obj
 0001:00024ddc       ?assign@?$basic_string@DU?$char_traits@D@std@@V?$allocator@D@2@@std@@QAAAAV12@ABV12@II@Z 10025ddc f i core_dynrec.obj
 0001:00024ec0       ?_Grow@?$basic_string@DU?$char_traits@D@std@@V?$allocator@D@2@@std@@QAA_NI_N@Z 10025ec0 f i core_dynrec.obj
 0001:00024fa0       ??$destroy@U_Container_proxy@std@@@?$allocator@U_Container_proxy@std@@@std@@QAAXPAU_Container_proxy@1@@Z 10025fa0 f i core_dynrec.obj
 0001:00024fb8       ?deallocate@?$allocator@U_Container_proxy@std@@@std@@QAAXPAU_Container_proxy@2@I@Z 10025fb8 f i core_dynrec.obj
 0001:00024fd8       ??$_Allocate@U_Container_proxy@std@@@std@@YAPAU_Container_proxy@0@IPAU10@@Z 10025fd8 f i core_dynrec.obj
 0001:00025050       ??2@YAPAXIPAX@Z            10026050 f i core_dynrec.obj
 0001:00025080       ??$forward@U_Container_proxy@std@@@std@@YA$$QAU_Container_proxy@0@AAU10@@Z 10026080 f i core_dynrec.obj
 0001:000250b0       ??3@YAXPAX0@Z              100260b0 f i core_dynrec.obj
 0001:000250c8       ??$destroy@PAD@?$allocator@D@std@@QAAXPAPAD@Z 100260c8 f i core_dynrec.obj
 0001:000250e0       ?size@?$basic_string@DU?$char_traits@D@std@@V?$allocator@D@2@@std@@QBAIXZ 100260e0 f i core_dynrec.obj
 0001:00025114       ?_Xran@?$basic_string@DU?$char_traits@D@std@@V?$allocator@D@2@@std@@QBAXXZ 10026114 f i core_dynrec.obj
 0001:00025138       ?erase@?$basic_string@DU?$char_traits@D@std@@V?$allocator@D@2@@std@@QAAAAV12@I@Z 10026138 f i core_dynrec.obj
 0001:00025188       ?erase@?$basic_string@DU?$char_traits@D@std@@V?$allocator@D@2@@std@@QAAAAV12@II@Z 10026188 f i core_dynrec.obj
 0001:0002523c       ?_Myptr@?$_String_val@U?$_Simple_types@D@std@@@std@@QBAPBDXZ 1002623c f i core_dynrec.obj
 0001:00025298       ?max_size@?$basic_string@DU?$char_traits@D@std@@V?$allocator@D@2@@std@@QBAIXZ 10026298 f i core_dynrec.obj
 0001:000252fc       ?_Xlen@?$basic_string@DU?$char_traits@D@std@@V?$allocator@D@2@@std@@QBAXXZ 100262fc f i core_dynrec.obj
 0001:00025320       ?_Copy@?$basic_string@DU?$char_traits@D@std@@V?$allocator@D@2@@std@@QAAXII@Z 10026320 f i core_dynrec.obj
 0001:000254f4       ?move@?$char_traits@D@std@@SAPADPADPBDI@Z 100264f4 f i core_dynrec.obj
 0001:00025554       ?max_size@?$_Wrap_alloc@V?$allocator@D@std@@@std@@QBAIXZ 10026554 f i core_dynrec.obj
 0001:0002558c       ?allocate@?$_Wrap_alloc@V?$allocator@D@std@@@std@@QAAPADI@Z 1002658c f i core_dynrec.obj
 0001:000255c8       ??$construct@PADAAPAD@?$_Wrap_alloc@V?$allocator@D@std@@@std@@QAAXPAPADAAPAD@Z 100265c8 f i core_dynrec.obj
 0001:00025604       ?max_size@?$allocator_traits@V?$allocator@D@std@@@std@@SAIABV?$allocator@D@2@@Z 10026604 f i core_dynrec.obj
 0001:0002563c       ?allocate@?$allocator@D@std@@QAAPADI@Z 1002663c f i core_dynrec.obj
 0001:00025678       ??$forward@AAPAD@std@@YAAAPADAAPAD@Z 10026678 f i core_dynrec.obj
 0001:000256a8       ??$construct@PADAAPAD@?$allocator_traits@V?$allocator@D@std@@@std@@SAXAAV?$allocator@D@1@PAPADAAPAD@Z 100266a8 f i core_dynrec.obj
 0001:000256e4       ?max_size@?$allocator@D@std@@QBAIXZ 100266e4 f i core_dynrec.obj
 0001:00025714       ??$_Allocate@D@std@@YAPADIPAD@Z 10026714 f i core_dynrec.obj
 0001:00025784       ??$construct@PADAAPAD@?$allocator@D@std@@QAAXPAPADAAPAD@Z 10026784 f i core_dynrec.obj
 0001:00025808       ?CPU_Core_Full_Run@@YAHXZ  10026808 f   core_full.obj
 0001:0002d50c       ?CPU_Core_Full_Init@@YAXXZ 1002e50c f   core_full.obj
 0001:00030304       ?CPU_Core_Normal_Run@@YAHXZ 10031304 f   core_normal.obj
 0001:0005ae20       ?CPU_Core_Normal_Trap_Run@@YAHXZ 1005be20 f   core_normal.obj
 0001:0005ae90       ?CPU_Core_Normal_Init@@YAXXZ 1005be90 f   core_normal.obj
 0001:000670a0       ??0Descriptor@@QAA@XZ      100680a0 f i core_normal.obj
 0001:000670e0       ?GetDescriptor@GDTDescriptorTable@@QAA_NIAAVDescriptor@@@Z 100680e0 f i core_normal.obj
 0001:0006718c       ?Type@Descriptor@@QAAIXZ   1006818c f i core_normal.obj
 0001:00067d34       ?CPU_Core_Prefetch_Run@@YAHXZ 10068d34 f   core_prefetch.obj
 0001:0009293c       ?CPU_Core_Prefetch_Trap_Run@@YAHXZ 1009393c f   core_prefetch.obj
 0001:000929ac       ?CPU_Core_Prefetch_Init@@YAXXZ 100939ac f   core_prefetch.obj
 0001:0009fd44       ?CPU_Core_Simple_Run@@YAHXZ 100a0d44 f   core_simple.obj
 0001:000ca878       ?CPU_Core_Simple_Trap_Run@@YAHXZ 100cb878 f   core_simple.obj
 0001:000ca8e8       ?CPU_Core_Simple_Init@@YAXXZ 100cb8e8 f   core_simple.obj
 0001:000d6afc       ?Load@Descriptor@@QAAXK@Z  100d7afc f   cpu.obj
 0001:000d6b54       ?Save@Descriptor@@QAAXK@Z  100d7b54 f   cpu.obj
 0001:000d6ba0       ?CPU_Push16@@YAXI@Z        100d7ba0 f   cpu.obj
 0001:000d6c0c       ?CPU_Push32@@YAXI@Z        100d7c0c f   cpu.obj
 0001:000d6c78       ?CPU_Pop16@@YAIXZ          100d7c78 f   cpu.obj
 0001:000d6cf0       ?CPU_Pop32@@YAIXZ          100d7cf0 f   cpu.obj
 0001:000d6d64       ?SelBase@@YAKI@Z           100d7d64 f   cpu.obj
 0001:000d6ddc       ?CPU_SetFlags@@YAXII@Z     100d7ddc f   cpu.obj
 0001:000d6e34       ?CPU_PrepareException@@YA_NII@Z 100d7e34 f   cpu.obj
 0001:000d6e6c       ?CPU_CLI@@YA_NXZ           100d7e6c f   cpu.obj
 0001:000d6f08       ?CPU_STI@@YA_NXZ           100d7f08 f   cpu.obj
 0001:000d6fa0       ?CPU_POPF@@YA_NI@Z         100d7fa0 f   cpu.obj
 0001:000d7080       ?CPU_PUSHF@@YA_NI@Z        100d8080 f   cpu.obj
 0001:000d710c       ?CPU_CheckSegments@@YAXXZ  100d810c f   cpu.obj
 0001:000d7328       ?CPU_SwitchTask@@YA_NIW4TSwitchType@@I@Z 100d8328 f   cpu.obj
 0001:000d79cc       ?CPU_IO_Exception@@YA_NII@Z 100d89cc f   cpu.obj
 0001:000d7ad0       ?CPU_Exception@@YAXII@Z    100d8ad0 f   cpu.obj
 0001:000d7b34       ?CPU_Interrupt@@YAXIII@Z   100d8b34 f   cpu.obj
 0001:000d8198       ?CPU_IRET@@YAX_NI@Z        100d9198 f   cpu.obj
 0001:000d8adc       ?CPU_JMP@@YAX_NIII@Z       100d9adc f   cpu.obj
 0001:000d8c78       ?CPU_CALL@@YAX_NIII@Z      100d9c78 f   cpu.obj
 0001:000d9330       ?CPU_RET@@YAX_NII@Z        100da330 f   cpu.obj
 0001:000d97d4       ?CPU_SLDT@@YAIXZ           100da7d4 f   cpu.obj
 0001:000d9804       ?CPU_LLDT@@YA_NI@Z         100da804 f   cpu.obj
 0001:000d9850       ?CPU_STR@@YAIXZ            100da850 f   cpu.obj
 0001:000d9874       ?CPU_LTR@@YA_NI@Z          100da874 f   cpu.obj
 0001:000d99a4       ?CPU_LGDT@@YAXII@Z         100da9a4 f   cpu.obj
 0001:000d99d4       ?CPU_LIDT@@YAXII@Z         100da9d4 f   cpu.obj
 0001:000d9a04       ?CPU_SGDT_base@@YAIXZ      100daa04 f   cpu.obj
 0001:000d9a34       ?CPU_SGDT_limit@@YAIXZ     100daa34 f   cpu.obj
 0001:000d9a64       ?CPU_SIDT_base@@YAIXZ      100daa64 f   cpu.obj
 0001:000d9a94       ?CPU_SIDT_limit@@YAIXZ     100daa94 f   cpu.obj
 0001:000d9ac4       ?CPU_SET_CRX@@YAXII@Z      100daac4 f   cpu.obj
 0001:000d9c2c       ?CPU_WRITE_CRX@@YA_NII@Z   100dac2c f   cpu.obj
 0001:000d9cd0       ?CPU_GET_CRX@@YAII@Z       100dacd0 f   cpu.obj
 0001:000d9d70       ?CPU_READ_CRX@@YA_NIAAK@Z  100dad70 f   cpu.obj
 0001:000d9df8       ?CPU_WRITE_DRX@@YA_NII@Z   100dadf8 f   cpu.obj
 0001:000d9ec8       ?CPU_READ_DRX@@YA_NIAAK@Z  100daec8 f   cpu.obj
 0001:000d9f78       ?CPU_WRITE_TRX@@YA_NII@Z   100daf78 f   cpu.obj
 0001:000da008       ?CPU_READ_TRX@@YA_NIAAK@Z  100db008 f   cpu.obj
 0001:000da09c       ?CPU_SMSW@@YAIXZ           100db09c f   cpu.obj
 0001:000da0c0       ?CPU_LMSW@@YA_NI@Z         100db0c0 f   cpu.obj
 0001:000da144       ?CPU_ARPL@@YAXAAII@Z       100db144 f   cpu.obj
 0001:000da1c0       ?CPU_LAR@@YAXIAAI@Z        100db1c0 f   cpu.obj
 0001:000da37c       ?CPU_LSL@@YAXIAAI@Z        100db37c f   cpu.obj
 0001:000da518       ?CPU_VERR@@YAXI@Z          100db518 f   cpu.obj
 0001:000da688       ?CPU_VERW@@YAXI@Z          100db688 f   cpu.obj
 0001:000da7e0       ?CPU_SetSegGeneral@@YA_NW4SegNames@@I@Z 100db7e0 f   cpu.obj
 0001:000dab70       ?CPU_PopSeg@@YA_NW4SegNames@@_N@Z 100dbb70 f   cpu.obj
 0001:000dac24       ?CPU_CPUID@@YA_NXZ         100dbc24 f   cpu.obj
 0001:000dad34       ?CPU_HLT@@YAXI@Z           100dbd34 f   cpu.obj
 0001:000dad98       ?CPU_ENTER@@YAX_NII@Z      100dbd98 f   cpu.obj
 0001:000daf54       ?CPU_Enable_SkipAutoAdjust@@YAXXZ 100dbf54 f   cpu.obj
 0001:000daf98       ?CPU_Disable_SkipAutoAdjust@@YAXXZ 100dbf98 f   cpu.obj
 0001:000dafb0       ?CPU_Reset_AutoAdjust@@YAXXZ 100dbfb0 f   cpu.obj
 0001:000dafcc       ?CPU_ShutDown@@YAXPAVSection@@@Z 100dbfcc f   cpu.obj
 0001:000db020       ?CPU_Init@@YAXPAVSection@@@Z 100dc020 f   cpu.obj
 0001:000dc688       ?GetBase@Descriptor@@QAAKXZ 100dd688 f i cpu.obj
 0001:000dc6e0       ?DPL@Descriptor@@QAAIXZ    100dd6e0 f i cpu.obj
 0001:000dc718       ??0TaskStateSegment@@QAA@XZ 100dd718 f i cpu.obj
 0001:000dc75c       ?SetSelector@TaskStateSegment@@QAA_NI@Z 100dd75c f i cpu.obj
 0001:000dc8f4       ?IsBusy@TSS_Descriptor@@QAAIXZ 100dd8f4 f i cpu.obj
 0001:000dc930       ?SetBusy@TSS_Descriptor@@QAAX_N@Z 100dd930 f i cpu.obj
 0001:000dc9a4       ?SaveSelector@TaskStateSegment@@QAAXXZ 100dd9a4 f i cpu.obj
 0001:000dc9d8       ?Big@Descriptor@@QAAIXZ    100dd9d8 f i cpu.obj
 0001:000dca10       ?GetBase@DescriptorTable@@QAAKXZ 100dda10 f i cpu.obj
 0001:000dca40       ?GetDescriptor@DescriptorTable@@QAA_NIAAVDescriptor@@@Z 100dda40 f i cpu.obj
 0001:000dcaa8       ?GetSelector@Descriptor@@QAAIXZ 100ddaa8 f i cpu.obj
 0001:000dcadc       ?GetOffset@Descriptor@@QAAIXZ 100ddadc f i cpu.obj
 0001:000dcb20       ?Get_SSx_ESPx@TaskStateSegment@@QAAXIAAI0@Z 100ddb20 f i cpu.obj
 0001:000dcbfc       ?IsValid@TaskStateSegment@@QAA_NXZ 100ddbfc f i cpu.obj
 0001:000dcc34       ?Get_back@TaskStateSegment@@QAAIXZ 100ddc34 f i cpu.obj
 0001:000dcc98       ?SLDT@GDTDescriptorTable@@QAAIXZ 100ddc98 f i cpu.obj
 0001:000dcccc       ?LLDT@GDTDescriptorTable@@QAA_NI@Z 100ddccc f i cpu.obj
 0001:000dce78       ??0TSS_Descriptor@@QAA@XZ  100dde78 f i cpu.obj
 0001:000dceac       ?SetLimit@DescriptorTable@@QAAXI@Z 100ddeac f i cpu.obj
 0001:000dcecc       ?SetBase@DescriptorTable@@QAAXK@Z 100ddecc f i cpu.obj
 0001:000dceec       ?GetLimit@DescriptorTable@@QAAIXZ 100ddeec f i cpu.obj
 0001:000dcf20       ?GetLimit@Descriptor@@QAAIXZ 100ddf20 f i cpu.obj
 0001:000dcf8c       ??0CPU@@QAA@PAVSection@@@Z 100ddf8c f i cpu.obj
 0001:000dd23c       ?Is386@TSS_Descriptor@@QAAIXZ 100de23c f i cpu.obj
 0001:000dd278       ?SetDescriptor@GDTDescriptorTable@@QAA_NIAAVDescriptor@@@Z 100de278 f i cpu.obj
 0001:000dd324       ??0Module_base@@QAA@PAVSection@@@Z 100de324 f i cpu.obj
 0001:000dd36c       ??_ECPU@@UAAPAXI@Z         100de36c f i cpu.obj
 0001:000dd36c       ??_GCPU@@UAAPAXI@Z         100de36c f i cpu.obj
 0001:000dd3b4       ?Change_Config@CPU@@UAA_NPAVSection@@@Z 100de3b4 f i cpu.obj
 0001:000de154       ??1Module_base@@UAA@XZ     100df154 f i cpu.obj
 0001:000de178       ??_EModule_base@@UAAPAXI@Z 100df178 f i cpu.obj
 0001:000de178       ??_GModule_base@@UAAPAXI@Z 100df178 f i cpu.obj
 0001:000de1c0       ?Change_Config@Module_base@@UAA_NPAVSection@@@Z 100df1c0 f i cpu.obj
 0001:000de1f4       ??1CPU@@UAA@XZ             100df1f4 f i cpu.obj
 0001:000de224       ??1?$basic_string@DU?$char_traits@D@std@@V?$allocator@D@2@@std@@QAA@XZ 100df224 f i cpu.obj
 0001:000de250       ?GetSection@Prop_multival@@QAAPAVSection_prop@@XZ 100df250 f i cpu.obj
 0001:000de284       ??0?$basic_string@DU?$char_traits@D@std@@V?$allocator@D@2@@std@@QAA@XZ 100df284 f i cpu.obj
 0001:000de2f4       ??$?8DU?$char_traits@D@std@@V?$allocator@D@1@@std@@YA_NABV?$basic_string@DU?$char_traits@D@std@@V?$allocator@D@2@@0@PBD@Z 100df2f4 f i cpu.obj
 0001:000de350       ?find@?$basic_string@DU?$char_traits@D@std@@V?$allocator@D@2@@std@@QBAIDI@Z 100df350 f i cpu.obj
 0001:000de390       ?length@?$basic_string@DU?$char_traits@D@std@@V?$allocator@D@2@@std@@QBAIXZ 100df390 f i cpu.obj
 0001:000de3c4       ??0?$basic_istringstream@DU?$char_traits@D@std@@V?$allocator@D@2@@std@@QAA@ABV?$basic_string@DU?$char_traits@D@std@@V?$allocator@D@2@@1@H@Z 100df3c4 f i cpu.obj
 0001:000de4f8       ??_D?$basic_istringstream@DU?$char_traits@D@std@@V?$allocator@D@2@@std@@QAAXXZ 100df4f8 f i cpu.obj
 0001:000de530       ??1CommandLine@@QAA@XZ     100df530 f i cpu.obj
 0001:000de55c       ?compare@?$basic_string@DU?$char_traits@D@std@@V?$allocator@D@2@@std@@QBAHPBD@Z 100df55c f i cpu.obj
 0001:000de5cc       ?find@?$basic_string@DU?$char_traits@D@std@@V?$allocator@D@2@@std@@QBAIPBDII@Z 100df5cc f i cpu.obj
 0001:000de6f0       ??_E?$basic_istringstream@DU?$char_traits@D@std@@V?$allocator@D@2@@std@@$4PPPPPPPM@A@AAPAXI@Z 100df6f0 f i cpu.obj
 0001:000de70c       ?_Add_vtordisp1@?$basic_istream@DU?$char_traits@D@std@@@std@@$4PPPPPPPM@EI@AAXXZ 100df70c f i cpu.obj
 0001:000de72c       ??0?$basic_stringbuf@DU?$char_traits@D@std@@V?$allocator@D@2@@std@@QAA@ABV?$basic_string@DU?$char_traits@D@std@@V?$allocator@D@2@@1@H@Z 100df72c f i cpu.obj
 0001:000de7dc       ??1?$basic_istringstream@DU?$char_traits@D@std@@V?$allocator@D@2@@std@@UAA@XZ 100df7dc f i cpu.obj
 0001:000de870       ??1?$list@V?$basic_string@DU?$char_traits@D@std@@V?$allocator@D@2@@std@@V?$allocator@V?$basic_string@DU?$char_traits@D@std@@V?$allocator@D@2@@std@@@2@@std@@QAA@XZ 100df870 f i cpu.obj
 0001:000de898       ?compare@?$basic_string@DU?$char_traits@D@std@@V?$allocator@D@2@@std@@QBAHIIPBDI@Z 100df898 f i cpu.obj
 0001:000de99c       ?find@?$char_traits@D@std@@SAPBDPBDIABD@Z 100df99c f i cpu.obj
 0001:000dea00       ?compare@?$char_traits@D@std@@SAHPBD0I@Z 100dfa00 f i cpu.obj
 0001:000dea58       ??_G?$basic_istringstream@DU?$char_traits@D@std@@V?$allocator@D@2@@std@@UAAPAXI@Z 100dfa58 f i cpu.obj
 0001:000dea58       ??_E?$basic_istringstream@DU?$char_traits@D@std@@V?$allocator@D@2@@std@@UAAPAXI@Z 100dfa58 f i cpu.obj
 0001:000deaac       ??_G?$basic_stringbuf@DU?$char_traits@D@std@@V?$allocator@D@2@@std@@UAAPAXI@Z 100dfaac f i cpu.obj
 0001:000deaac       ??_E?$basic_stringbuf@DU?$char_traits@D@std@@V?$allocator@D@2@@std@@UAAPAXI@Z 100dfaac f i cpu.obj
 0001:000deaf4       ?overflow@?$basic_stringbuf@DU?$char_traits@D@std@@V?$allocator@D@2@@std@@MAAHH@Z 100dfaf4 f i cpu.obj
 0001:000deee4       ?pbackfail@?$basic_stringbuf@DU?$char_traits@D@std@@V?$allocator@D@2@@std@@MAAHH@Z 100dfee4 f i cpu.obj
 0001:000df048       ?underflow@?$basic_stringbuf@DU?$char_traits@D@std@@V?$allocator@D@2@@std@@MAAHXZ 100e0048 f i cpu.obj
 0001:000df1ec       ?seekoff@?$basic_stringbuf@DU?$char_traits@D@std@@V?$allocator@D@2@@std@@MAA?AV?$fpos@H@2@_JHH@Z 100e01ec f i cpu.obj
 0001:000df60c       ?seekpos@?$basic_stringbuf@DU?$char_traits@D@std@@V?$allocator@D@2@@std@@MAA?AV?$fpos@H@2@V32@H@Z 100e060c f i cpu.obj
 0001:000df914       ?_Getstate@?$basic_stringbuf@DU?$char_traits@D@std@@V?$allocator@D@2@@std@@AAAHH@Z 100e0914 f i cpu.obj
 0001:000df998       ?c_str@?$basic_string@DU?$char_traits@D@std@@V?$allocator@D@2@@std@@QBAPBDXZ 100e0998 f i cpu.obj
 0001:000df9d0       ?_Init@?$basic_stringbuf@DU?$char_traits@D@std@@V?$allocator@D@2@@std@@IAAXPBDIH@Z 100e09d0 f i cpu.obj
 0001:000dfb18       ??1?$basic_stringbuf@DU?$char_traits@D@std@@V?$allocator@D@2@@std@@UAA@XZ 100e0b18 f i cpu.obj
 0001:000dfb54       ?_Tidy@?$list@V?$basic_string@DU?$char_traits@D@std@@V?$allocator@D@2@@std@@V?$allocator@V?$basic_string@DU?$char_traits@D@std@@V?$allocator@D@2@@std@@@2@@std@@QAAXXZ 100e0b54 f i cpu.obj
 0001:000dfb74       ??1?$_List_buy@V?$basic_string@DU?$char_traits@D@std@@V?$allocator@D@2@@std@@V?$allocator@V?$basic_string@DU?$char_traits@D@std@@V?$allocator@D@2@@std@@@2@@std@@QAA@XZ 100e0b74 f i cpu.obj
 0001:000dfb94       ?eof@?$char_traits@D@std@@SAHXZ 100e0b94 f i cpu.obj
 0001:000dfbbc       ?eq_int_type@?$char_traits@D@std@@SA_NABH0@Z 100e0bbc f i cpu.obj
 0001:000dfc0c       ?not_eof@?$char_traits@D@std@@SAHABH@Z 100e0c0c f i cpu.obj
 0001:000dfc7c       ?to_char_type@?$char_traits@D@std@@SADABH@Z 100e0c7c f i cpu.obj
 0001:000dfcb4       ?eq@?$char_traits@D@std@@SA_NABD0@Z 100e0cb4 f i cpu.obj
 0001:000dfd0c       ?to_int_type@?$char_traits@D@std@@SAHABD@Z 100e0d0c f i cpu.obj
 0001:000dfd40       ??0?$fpos@H@std@@QAA@_J@Z  100e0d40 f i cpu.obj
 0001:000dfdac       ??B?$fpos@H@std@@QBA_JXZ   100e0dac f i cpu.obj
 0001:000dfe08       ?_Tidy@?$basic_stringbuf@DU?$char_traits@D@std@@V?$allocator@D@2@@std@@IAAXXZ 100e0e08 f i cpu.obj
 0001:000dff0c       ?clear@?$list@V?$basic_string@DU?$char_traits@D@std@@V?$allocator@D@2@@std@@V?$allocator@V?$basic_string@DU?$char_traits@D@std@@V?$allocator@D@2@@std@@@2@@std@@QAAXXZ 100e0f0c f i cpu.obj
 0001:000dffd4       ??1?$_List_alloc@$0A@U?$_List_base_types@V?$basic_string@DU?$char_traits@D@std@@V?$allocator@D@2@@std@@V?$allocator@V?$basic_string@DU?$char_traits@D@std@@V?$allocator@D@2@@std@@@2@@std@@@std@@QAA@XZ 100e0fd4 f i cpu.obj
 0001:000e0008       ?_Nextnode@?$_List_val@U?$_List_simple_types@V?$basic_string@DU?$char_traits@D@std@@V?$allocator@D@2@@std@@@std@@@std@@SAAAPAU?$_List_node@V?$basic_string@DU?$char_traits@D@std@@V?$allocator@D@2@@std@@PAX@2@PAU32@@Z 100e1008 f i cpu.obj
 0001:000e0038       ?_Prevnode@?$_List_val@U?$_List_simple_types@V?$basic_string@DU?$char_traits@D@std@@V?$allocator@D@2@@std@@@std@@@std@@SAAAPAU?$_List_node@V?$basic_string@DU?$char_traits@D@std@@V?$allocator@D@2@@std@@PAX@2@PAU32@@Z 100e1038 f i cpu.obj
 0001:000e0068       ?_Freenode@?$_List_buy@V?$basic_string@DU?$char_traits@D@std@@V?$allocator@D@2@@std@@V?$allocator@V?$basic_string@DU?$char_traits@D@std@@V?$allocator@D@2@@std@@@2@@std@@QAAXPAU?$_List_node@V?$basic_string@DU?$char_traits@D@std@@V?$allocator@D@2@@std@@PAX@2@@Z 100e1068 f i cpu.obj
 0001:000e0134       ?_Freeheadnode@?$_List_alloc@$0A@U?$_List_base_types@V?$basic_string@DU?$char_traits@D@std@@V?$allocator@D@2@@std@@V?$allocator@V?$basic_string@DU?$char_traits@D@std@@V?$allocator@D@2@@std@@@2@@std@@@std@@QAAXPAU?$_List_node@V?$basic_string@DU?$char_traits@D@std@@V?$allocator@D@2@@std@@PAX@2@@Z 100e1134 f i cpu.obj
 0001:000e01d4       ?_Free_proxy@?$_List_alloc@$0A@U?$_List_base_types@V?$basic_string@DU?$char_traits@D@std@@V?$allocator@D@2@@std@@V?$allocator@V?$basic_string@DU?$char_traits@D@std@@V?$allocator@D@2@@std@@@2@@std@@@std@@QAAXXZ 100e11d4 f i cpu.obj
 0001:000e0254       ??1?$_List_val@U?$_List_simple_types@V?$basic_string@DU?$char_traits@D@std@@V?$allocator@D@2@@std@@@std@@@std@@QAA@XZ 100e1254 f i cpu.obj
 0001:000e027c       ??$addressof@PAU?$_List_node@V?$basic_string@DU?$char_traits@D@std@@V?$allocator@D@2@@std@@PAX@std@@@std@@YAPAPAU?$_List_node@V?$basic_string@DU?$char_traits@D@std@@V?$allocator@D@2@@std@@PAX@0@AAPAU10@@Z 100e127c f i cpu.obj
 0001:000e02ac       ?_Getal@?$_List_alloc@$0A@U?$_List_base_types@V?$basic_string@DU?$char_traits@D@std@@V?$allocator@D@2@@std@@V?$allocator@V?$basic_string@DU?$char_traits@D@std@@V?$allocator@D@2@@std@@@2@@std@@@std@@QBA?AU?$_Wrap_alloc@V?$allocator@U?$_List_node@V?$basic_string@DU?$char_traits@D@std@@V?$allocator@D@2@@std@@PAX@std@@@std@@@2@XZ 100e12ac f i cpu.obj
 0001:000e02e0       ??$destroy@PAU?$_List_node@V?$basic_string@DU?$char_traits@D@std@@V?$allocator@D@2@@std@@PAX@std@@@?$_Wrap_alloc@V?$allocator@U?$_List_node@V?$basic_string@DU?$char_traits@D@std@@V?$allocator@D@2@@std@@PAX@std@@@std@@@std@@QAAXPAPAU?$_List_node@V?$basic_string@DU?$char_traits@D@std@@V?$allocator@D@2@@std@@PAX@1@@Z 100e12e0 f i cpu.obj
 0001:000e0300       ?_Myval@?$_List_val@U?$_List_simple_types@V?$basic_string@DU?$char_traits@D@std@@V?$allocator@D@2@@std@@@std@@@std@@SAAAV?$basic_string@DU?$char_traits@D@std@@V?$allocator@D@2@@2@PAU?$_List_node@V?$basic_string@DU?$char_traits@D@std@@V?$allocator@D@2@@std@@PAX@2@@Z 100e1300 f i cpu.obj
 0001:000e0330       ??$addressof@V?$basic_string@DU?$char_traits@D@std@@V?$allocator@D@2@@std@@@std@@YAPAV?$basic_string@DU?$char_traits@D@std@@V?$allocator@D@2@@0@AAV10@@Z 100e1330 f i cpu.obj
 0001:000e0360       ??$destroy@V?$basic_string@DU?$char_traits@D@std@@V?$allocator@D@2@@std@@@?$_Wrap_alloc@V?$allocator@U?$_List_node@V?$basic_string@DU?$char_traits@D@std@@V?$allocator@D@2@@std@@PAX@std@@@std@@@std@@QAAXPAV?$basic_string@DU?$char_traits@D@std@@V?$allocator@D@2@@1@@Z 100e1360 f i cpu.obj
 0001:000e0380       ?deallocate@?$_Wrap_alloc@V?$allocator@U?$_List_node@V?$basic_string@DU?$char_traits@D@std@@V?$allocator@D@2@@std@@PAX@std@@@std@@@std@@QAAXPAU?$_List_node@V?$basic_string@DU?$char_traits@D@std@@V?$allocator@D@2@@std@@PAX@2@I@Z 100e1380 f i cpu.obj
 0001:000e03a4       ??0?$_Wrap_alloc@V?$allocator@U_Container_proxy@std@@@std@@@std@@QAA@XZ 100e13a4 f i cpu.obj
 0001:000e03d8       ??$destroy@U_Container_proxy@std@@@?$_Wrap_alloc@V?$allocator@U_Container_proxy@std@@@std@@@std@@QAAXPAU_Container_proxy@1@@Z 100e13d8 f i cpu.obj
 0001:000e03f8       ?deallocate@?$_Wrap_alloc@V?$allocator@U_Container_proxy@std@@@std@@@std@@QAAXPAU_Container_proxy@2@I@Z 100e13f8 f i cpu.obj
 0001:000e041c       ??0?$_Wrap_alloc@V?$allocator@U?$_List_node@V?$basic_string@DU?$char_traits@D@std@@V?$allocator@D@2@@std@@PAX@std@@@std@@@std@@QAA@XZ 100e141c f i cpu.obj
 0001:000e0450       ??$destroy@PAU?$_List_node@V?$basic_string@DU?$char_traits@D@std@@V?$allocator@D@2@@std@@PAX@std@@@?$allocator_traits@V?$allocator@U?$_List_node@V?$basic_string@DU?$char_traits@D@std@@V?$allocator@D@2@@std@@PAX@std@@@std@@@std@@SAXAAV?$allocator@U?$_List_node@V?$basic_string@DU?$char_traits@D@std@@V?$allocator@D@2@@std@@PAX@std@@@1@PAPAU?$_List_node@V?$basic_string@DU?$char_traits@D@std@@V?$allocator@D@2@@std@@PAX@1@@Z 100e1450 f i cpu.obj
 0001:000e0470       ??$destroy@V?$basic_string@DU?$char_traits@D@std@@V?$allocator@D@2@@std@@@?$allocator_traits@V?$allocator@U?$_List_node@V?$basic_string@DU?$char_traits@D@std@@V?$allocator@D@2@@std@@PAX@std@@@std@@@std@@SAXAAV?$allocator@U?$_List_node@V?$basic_string@DU?$char_traits@D@std@@V?$allocator@D@2@@std@@PAX@std@@@1@PAV?$basic_string@DU?$char_traits@D@std@@V?$allocator@D@2@@1@@Z 100e1470 f i cpu.obj
 0001:000e0490       ?deallocate@?$allocator@U?$_List_node@V?$basic_string@DU?$char_traits@D@std@@V?$allocator@D@2@@std@@PAX@std@@@std@@QAAXPAU?$_List_node@V?$basic_string@DU?$char_traits@D@std@@V?$allocator@D@2@@std@@PAX@2@I@Z 100e1490 f i cpu.obj
 0001:000e04b0       ??$destroy@U_Container_proxy@std@@@?$allocator_traits@V?$allocator@U_Container_proxy@std@@@std@@@std@@SAXAAV?$allocator@U_Container_proxy@std@@@1@PAU_Container_proxy@1@@Z 100e14b0 f i cpu.obj
 0001:000e04d0       ??0?$allocator@U?$_List_node@V?$basic_string@DU?$char_traits@D@std@@V?$allocator@D@2@@std@@PAX@std@@@std@@QAA@XZ 100e14d0 f i cpu.obj
 0001:000e0500       ??$destroy@PAU?$_List_node@V?$basic_string@DU?$char_traits@D@std@@V?$allocator@D@2@@std@@PAX@std@@@?$allocator@U?$_List_node@V?$basic_string@DU?$char_traits@D@std@@V?$allocator@D@2@@std@@PAX@std@@@std@@QAAXPAPAU?$_List_node@V?$basic_string@DU?$char_traits@D@std@@V?$allocator@D@2@@std@@PAX@1@@Z 100e1500 f i cpu.obj
 0001:000e0518       ??$destroy@V?$basic_string@DU?$char_traits@D@std@@V?$allocator@D@2@@std@@@?$allocator@U?$_List_node@V?$basic_string@DU?$char_traits@D@std@@V?$allocator@D@2@@std@@PAX@std@@@std@@QAAXPAV?$basic_string@DU?$char_traits@D@std@@V?$allocator@D@2@@1@@Z 100e1518 f i cpu.obj
 0001:000e0538       ??_G?$basic_string@DU?$char_traits@D@std@@V?$allocator@D@2@@std@@QAAPAXI@Z 100e1538 f i cpu.obj
 0001:000e0580       ?GetPlatformConfigDir@Cross@@SAXAAV?$basic_string@DU?$char_traits@D@std@@V?$allocator@D@2@@std@@@Z 100e1580 f   cross.obj
 0001:000e05b0       ?GetPlatformConfigName@Cross@@SAXAAV?$basic_string@DU?$char_traits@D@std@@V?$allocator@D@2@@std@@@Z 100e15b0 f   cross.obj
 0001:000e05d0       ?CreatePlatformConfigDir@Cross@@SAXAAV?$basic_string@DU?$char_traits@D@std@@V?$allocator@D@2@@std@@@Z 100e15d0 f   cross.obj
 0001:000e0620       ?ResolveHomedir@Cross@@SAXAAV?$basic_string@DU?$char_traits@D@std@@V?$allocator@D@2@@std@@@Z 100e1620 f   cross.obj
 0001:000e06e8       ?CreateDir@Cross@@SAXABV?$basic_string@DU?$char_traits@D@std@@V?$allocator@D@2@@std@@@Z 100e16e8 f   cross.obj
 0001:000e071c       ?open_directory@@YAPAUdir_struct@@PBD@Z 100e171c f   cross.obj
 0001:000e07ec       ?read_directory_first@@YA_NPAUdir_struct@@PADAA_N@Z 100e17ec f   cross.obj
 0001:000e0884       ?read_directory_next@@YA_NPAUdir_struct@@PADAA_N@Z 100e1884 f   cross.obj
 0001:000e091c       ?close_directory@@YAXPAUdir_struct@@@Z 100e191c f   cross.obj
 0001:000e0bf4       ??Y?$basic_string@DU?$char_traits@D@std@@V?$allocator@D@2@@std@@QAAAAV01@PBD@Z 100e1bf4 f i cross.obj
 0001:000e0c30       ??Y?$basic_string@DU?$char_traits@D@std@@V?$allocator@D@2@@std@@QAAAAV01@D@Z 100e1c30 f i cross.obj
 0001:000e0c70       ??4?$basic_string@DU?$char_traits@D@std@@V?$allocator@D@2@@std@@QAAAAV01@PBD@Z 100e1c70 f i cross.obj
 0001:000e0cac       ??A?$basic_string@DU?$char_traits@D@std@@V?$allocator@D@2@@std@@QAAAADI@Z 100e1cac f i cross.obj
 0001:000e0d20       ?replace@?$basic_string@DU?$char_traits@D@std@@V?$allocator@D@2@@std@@QAAAAV12@IIABV12@@Z 100e1d20 f i cross.obj
 0001:000e0d78       ?append@?$basic_string@DU?$char_traits@D@std@@V?$allocator@D@2@@std@@QAAAAV12@PBD@Z 100e1d78 f i cross.obj
 0001:000e0dd8       ?append@?$basic_string@DU?$char_traits@D@std@@V?$allocator@D@2@@std@@QAAAAV12@ID@Z 100e1dd8 f i cross.obj
 0001:000e0e84       ?replace@?$basic_string@DU?$char_traits@D@std@@V?$allocator@D@2@@std@@QAAAAV12@IIABV12@II@Z 100e1e84 f i cross.obj
 0001:000e11f4       ?append@?$basic_string@DU?$char_traits@D@std@@V?$allocator@D@2@@std@@QAAAAV12@PBDI@Z 100e21f4 f i cross.obj
 0001:000e1308       ?_Chassign@?$basic_string@DU?$char_traits@D@std@@V?$allocator@D@2@@std@@QAAXIID@Z 100e2308 f i cross.obj
 0001:000e1370       ?append@?$basic_string@DU?$char_traits@D@std@@V?$allocator@D@2@@std@@QAAAAV12@ABV12@II@Z 100e2370 f i cross.obj
 0001:000e1474       ?assign@?$char_traits@D@std@@SAPADPADID@Z 100e2474 f i cross.obj
 0001:000e14b4       DllMain                    100e24b4 f   dllmain.obj
 0001:000e14e4       ?GFX_SetTitle@@YAXJH_N@Z   100e24e4 f   dosbox_emu.obj
 0001:000e14f8       ?MAPPER_AddHandler@@YAXP6AX_N@ZW4MapKeys@@IQBD3@Z 100e24f8 f   dosbox_emu.obj
 0001:000e150c       ?GetFSBase@@YAKXZ          100e250c f   dosbox_emu.obj
 0001:000e1530       ?DOSBOX_SetNormalLoop@@YAXXZ 100e2530 f   dosbox_emu.obj
 0001:000e154c       ?GFX_ShowMsg@@YAXPBDZZ     100e254c f   dosbox_emu.obj
 0001:000e1580       ?IO_WriteB@@YAXII@Z        100e2580 f   dosbox_emu.obj
 0001:000e15a8       ?IO_WriteW@@YAXII@Z        100e25a8 f   dosbox_emu.obj
 0001:000e15d0       ?IO_WriteD@@YAXII@Z        100e25d0 f   dosbox_emu.obj
 0001:000e15f8       ?IO_ReadB@@YAII@Z          100e25f8 f   dosbox_emu.obj
 0001:000e1630       ?IO_ReadW@@YAII@Z          100e2630 f   dosbox_emu.obj
 0001:000e1668       ?GetHookAddress@@YAKPAD0@Z 100e2668 f   dosbox_emu.obj
 0001:000e17c8       ?IO_ReadD@@YAII@Z          100e27c8 f   dosbox_emu.obj
 0001:000e18dc       ?DOSBOX_RunMachine@@YAXXZ  100e28dc f   dosbox_emu.obj
 0001:000e1904       ?AllocStack@@YAPAXH@Z      100e2904 f   dosbox_emu.obj
 0001:000e198c       ?FreeStack@@YAXPAX@Z       100e298c f   dosbox_emu.obj
 0001:000e19b0       ?ReuseStack@@YAXPAX@Z      100e29b0 f   dosbox_emu.obj
 0001:000e19d0       EmuExecute                 100e29d0 f   dosbox_emu.obj
 0001:000e1b48       ?SHELL_Init@@YAXXZ         100e2b48 f   dosbox_emu.obj
 0001:000e1b98       ?DOSBOX_Init@@YAXXZ        100e2b98 f   dosbox_emu.obj
 0001:000e2048       EmuInitialize              100e3048 f   dosbox_emu.obj
 0001:000e26f8       ?AddHead@CList@@QAA_NPAX@Z 100e36f8 f i dosbox_emu.obj
 0001:000e27b4       ?GetHead@CList@@QAAPAXXZ   100e37b4 f i dosbox_emu.obj
 0001:000e2864       ??0Value@@QAA@H@Z          100e3864 f i dosbox_emu.obj
 0001:000e28b4       ?SetMinMax@Prop_int@@QAAXABVValue@@0@Z 100e38b4 f i dosbox_emu.obj
 0001:000e28e8       ??1Value@@QAA@XZ           100e38e8 f i dosbox_emu.obj
 0001:000e2908       ??0CList@@QAA@XZ           100e3908 f i dosbox_emu.obj
 0001:000e2964       ?Lock@CLock@@QAAXXZ        100e3964 f i dosbox_emu.obj
 0001:000e29a8       ?Unlock@CLock@@QAAXXZ      100e39a8 f i dosbox_emu.obj
 0001:000e29f8       ??0Hex@@QAA@XZ             100e39f8 f i dosbox_emu.obj
 0001:000e2a2c       ??4Value@@QAAAAV0@ABV0@@Z  100e3a2c f i dosbox_emu.obj
 0001:000e2aac       ??0Config@@QAA@PAVCommandLine@@@Z 100e3aac f i dosbox_emu.obj
 0001:000e2afc       ??0CLock@@QAA@PAPAU_RTL_CRITICAL_SECTION@@@Z 100e3afc f i dosbox_emu.obj
 0001:000e2b88       ??1CList@@QAA@XZ           100e3b88 f i dosbox_emu.obj
 0001:000e2c24       ??0Value@@QAA@ABV0@@Z      100e3c24 f i dosbox_emu.obj
 0001:000e2c70       ??0?$list@PAVSection@@V?$allocator@PAVSection@@@std@@@std@@QAA@XZ 100e3c70 f i dosbox_emu.obj
 0001:000e2cb8       ??1CLock@@QAA@XZ           100e3cb8 f i dosbox_emu.obj
 0001:000e2cec       ??0?$allocator@PAVSection@@@std@@QAA@XZ 100e3cec f i dosbox_emu.obj
 0001:000e2d1c       ??0?$_List_buy@PAVSection@@V?$allocator@PAVSection@@@std@@@std@@QAA@ABV?$allocator@PAVSection@@@1@@Z 100e3d1c f i dosbox_emu.obj
 0001:000e2d58       ?FreeCS@CLock@@AAAXXZ      100e3d58 f i dosbox_emu.obj
 0001:000e2dd0       ??0?$_List_alloc@$0A@U?$_List_base_types@PAVSection@@V?$allocator@PAVSection@@@std@@@std@@@std@@QAA@ABV?$allocator@PAVSection@@@1@@Z 100e3dd0 f i dosbox_emu.obj
 0001:000e2e6c       ??0?$_List_val@U?$_List_simple_types@PAVSection@@@std@@@std@@QAA@XZ 100e3e6c f i dosbox_emu.obj
 0001:000e2ec4       ?_Buyheadnode@?$_List_alloc@$0A@U?$_List_base_types@PAVSection@@V?$allocator@PAVSection@@@std@@@std@@@std@@QAAPAU?$_List_node@PAVSection@@PAX@2@XZ 100e3ec4 f i dosbox_emu.obj
 0001:000e2f00       ?_Alloc_proxy@?$_List_alloc@$0A@U?$_List_base_types@PAVSection@@V?$allocator@PAVSection@@@std@@@std@@@std@@QAAXXZ 100e3f00 f i dosbox_emu.obj
 0001:000e2f84       ?_Freeheadnode@?$_List_alloc@$0A@U?$_List_base_types@PAVSection@@V?$allocator@PAVSection@@@std@@@std@@@std@@QAAXPAU?$_List_node@PAVSection@@PAX@2@@Z 100e3f84 f i dosbox_emu.obj
 0001:000e3024       ??1?$_List_val@U?$_List_simple_types@PAVSection@@@std@@@std@@QAA@XZ 100e4024 f i dosbox_emu.obj
 0001:000e304c       ?_Buynode0@?$_List_alloc@$0A@U?$_List_base_types@PAVSection@@V?$allocator@PAVSection@@@std@@@std@@@std@@QAAPAU?$_List_node@PAVSection@@PAX@2@PAU32@0@Z 100e404c f i dosbox_emu.obj
 0001:000e314c       ?allocate@?$_Wrap_alloc@V?$allocator@U_Container_proxy@std@@@std@@@std@@QAAPAU_Container_proxy@2@I@Z 100e414c f i dosbox_emu.obj
 0001:000e3188       ??$construct@U_Container_proxy@std@@U12@@?$_Wrap_alloc@V?$allocator@U_Container_proxy@std@@@std@@@std@@QAAXPAU_Container_proxy@1@$$QAU21@@Z 100e4188 f i dosbox_emu.obj
 0001:000e31c4       ?_Nextnode@?$_List_val@U?$_List_simple_types@PAVSection@@@std@@@std@@SAAAPAU?$_List_node@PAVSection@@PAX@2@PAU32@@Z 100e41c4 f i dosbox_emu.obj
 0001:000e31f4       ??$addressof@PAU?$_List_node@PAVSection@@PAX@std@@@std@@YAPAPAU?$_List_node@PAVSection@@PAX@0@AAPAU10@@Z 100e41f4 f i dosbox_emu.obj
 0001:000e3224       ?_Getal@?$_List_alloc@$0A@U?$_List_base_types@PAVSection@@V?$allocator@PAVSection@@@std@@@std@@@std@@QBA?AU?$_Wrap_alloc@V?$allocator@U?$_List_node@PAVSection@@PAX@std@@@std@@@2@XZ 100e4224 f i dosbox_emu.obj
 0001:000e3258       ??$destroy@PAU?$_List_node@PAVSection@@PAX@std@@@?$_Wrap_alloc@V?$allocator@U?$_List_node@PAVSection@@PAX@std@@@std@@@std@@QAAXPAPAU?$_List_node@PAVSection@@PAX@1@@Z 100e4258 f i dosbox_emu.obj
 0001:000e3278       ?_Prevnode@?$_List_val@U?$_List_simple_types@PAVSection@@@std@@@std@@SAAAPAU?$_List_node@PAVSection@@PAX@2@PAU32@@Z 100e4278 f i dosbox_emu.obj
 0001:000e32a8       ?deallocate@?$_Wrap_alloc@V?$allocator@U?$_List_node@PAVSection@@PAX@std@@@std@@@std@@QAAXPAU?$_List_node@PAVSection@@PAX@2@I@Z 100e42a8 f i dosbox_emu.obj
 0001:000e32cc       ?allocate@?$_Wrap_alloc@V?$allocator@U?$_List_node@PAVSection@@PAX@std@@@std@@@std@@QAAPAU?$_List_node@PAVSection@@PAX@2@I@Z 100e42cc f i dosbox_emu.obj
 0001:000e3308       ??$construct@PAU?$_List_node@PAVSection@@PAX@std@@AAPAU12@@?$_Wrap_alloc@V?$allocator@U?$_List_node@PAVSection@@PAX@std@@@std@@@std@@QAAXPAPAU?$_List_node@PAVSection@@PAX@1@AAPAU21@@Z 100e4308 f i dosbox_emu.obj
 0001:000e3344       ??$construct@U_Container_proxy@std@@U12@@?$allocator_traits@V?$allocator@U_Container_proxy@std@@@std@@@std@@SAXAAV?$allocator@U_Container_proxy@std@@@1@PAU_Container_proxy@1@$$QAU31@@Z 100e4344 f i dosbox_emu.obj
 0001:000e3380       ??0?$_Wrap_alloc@V?$allocator@U?$_List_node@PAVSection@@PAX@std@@@std@@@std@@QAA@XZ 100e4380 f i dosbox_emu.obj
 0001:000e33b4       ??$destroy@PAU?$_List_node@PAVSection@@PAX@std@@@?$allocator_traits@V?$allocator@U?$_List_node@PAVSection@@PAX@std@@@std@@@std@@SAXAAV?$allocator@U?$_List_node@PAVSection@@PAX@std@@@1@PAPAU?$_List_node@PAVSection@@PAX@1@@Z 100e43b4 f i dosbox_emu.obj
 0001:000e33d4       ?deallocate@?$allocator@U?$_List_node@PAVSection@@PAX@std@@@std@@QAAXPAU?$_List_node@PAVSection@@PAX@2@I@Z 100e43d4 f i dosbox_emu.obj
 0001:000e33f4       ?allocate@?$allocator@U?$_List_node@PAVSection@@PAX@std@@@std@@QAAPAU?$_List_node@PAVSection@@PAX@2@I@Z 100e43f4 f i dosbox_emu.obj
 0001:000e3430       ??$forward@AAPAU?$_List_node@PAVSection@@PAX@std@@@std@@YAAAPAU?$_List_node@PAVSection@@PAX@0@AAPAU10@@Z 100e4430 f i dosbox_emu.obj
 0001:000e3460       ??$construct@PAU?$_List_node@PAVSection@@PAX@std@@AAPAU12@@?$allocator_traits@V?$allocator@U?$_List_node@PAVSection@@PAX@std@@@std@@@std@@SAXAAV?$allocator@U?$_List_node@PAVSection@@PAX@std@@@1@PAPAU?$_List_node@PAVSection@@PAX@1@AAPAU31@@Z 100e4460 f i dosbox_emu.obj
 0001:000e349c       ??0?$allocator@U?$_List_node@PAVSection@@PAX@std@@@std@@QAA@XZ 100e449c f i dosbox_emu.obj
 0001:000e34cc       ??$destroy@PAU?$_List_node@PAVSection@@PAX@std@@@?$allocator@U?$_List_node@PAVSection@@PAX@std@@@std@@QAAXPAPAU?$_List_node@PAVSection@@PAX@1@@Z 100e44cc f i dosbox_emu.obj
 0001:000e34e4       ??$_Allocate@U?$_List_node@PAVSection@@PAX@std@@@std@@YAPAU?$_List_node@PAVSection@@PAX@0@IPAU10@@Z 100e44e4 f i dosbox_emu.obj
 0001:000e3564       ??$construct@PAU?$_List_node@PAVSection@@PAX@std@@AAPAU12@@?$allocator@U?$_List_node@PAVSection@@PAX@std@@@std@@QAAXPAPAU?$_List_node@PAVSection@@PAX@1@AAPAU21@@Z 100e4564 f i dosbox_emu.obj
 0001:000e35e8       ?get_CF@@YAKXZ             100e45e8 f   flags.obj
 0001:000e39ec       ?get_AF@@YAKXZ             100e49ec f   flags.obj
 0001:000e3c3c       ?get_ZF@@YAKXZ             100e4c3c f   flags.obj
 0001:000e3d80       ?get_SF@@YAKXZ             100e4d80 f   flags.obj
 0001:000e3ea0       ?get_OF@@YAKXZ             100e4ea0 f   flags.obj
 0001:000e4248       ?get_PF@@YAKXZ             100e5248 f   flags.obj
 0001:000e42a0       ?FillFlags@@YAIXZ          100e52a0 f   flags.obj
 0001:000e6f5c       ?FillFlagsNoCFOF@@YAXXZ    100e7f5c f   flags.obj
 0001:000e8abc       ?DestroyConditionFlags@@YAXXZ 100e9abc f   flags.obj
 0001:000ea010       ?FPU_FLDCW@@YAXK@Z         100eb010 f   fpu.obj
 0001:000ea048       ?FPU_GetTag@@YAGXZ         100eb048 f   fpu.obj
 0001:000ea0bc       ?FPU_ESC0_EA@@YAXIK@Z      100eb0bc f   fpu.obj
 0001:000ea0dc       ?FPU_ESC0_Normal@@YAXI@Z   100eb0dc f   fpu.obj
 0001:000ea204       ?FPU_ESC1_EA@@YAXIK@Z      100eb204 f   fpu.obj
 0001:000ea304       ?FPU_ESC1_Normal@@YAXI@Z   100eb304 f   fpu.obj
 0001:000ea614       ?FPU_ESC2_EA@@YAXIK@Z      100eb614 f   fpu.obj
 0001:000ea634       ?FPU_ESC2_Normal@@YAXI@Z   100eb634 f   fpu.obj
 0001:000ea6f8       ?FPU_ESC3_EA@@YAXIK@Z      100eb6f8 f   fpu.obj
 0001:000ea7e8       ?FPU_ESC3_Normal@@YAXI@Z   100eb7e8 f   fpu.obj
 0001:000ea8b4       ?FPU_ESC4_EA@@YAXIK@Z      100eb8b4 f   fpu.obj
 0001:000ea8d4       ?FPU_ESC4_Normal@@YAXI@Z   100eb8d4 f   fpu.obj
 0001:000ea9fc       ?FPU_ESC5_EA@@YAXIK@Z      100eb9fc f   fpu.obj
 0001:000eaafc       ?FPU_ESC5_Normal@@YAXI@Z   100ebafc f   fpu.obj
 0001:000eac24       ?FPU_ESC6_EA@@YAXIK@Z      100ebc24 f   fpu.obj
 0001:000eac44       ?FPU_ESC6_Normal@@YAXI@Z   100ebc44 f   fpu.obj
 0001:000eada4       ?FPU_ESC7_EA@@YAXIK@Z      100ebda4 f   fpu.obj
 0001:000eaeb8       ?FPU_ESC7_Normal@@YAXI@Z   100ebeb8 f   fpu.obj
 0001:000eafe4       ?FPU_Init@@YAXPAVSection@@@Z 100ebfe4 f   fpu.obj
 0001:000edfdc       ?MEM_SetLFB@@YAXIIPAVPageHandler@@0@Z 100eefdc f   memory.obj
 0001:000ee04c       ?MEM_GetPageHandler@@YAPAVPageHandler@@I@Z 100ef04c f   memory.obj
 0001:000ee118       ?MEM_SetPageHandler@@YAXIIPAVPageHandler@@@Z 100ef118 f   memory.obj
 0001:000ee158       ?MEM_ResetPageHandler@@YAXII@Z 100ef158 f   memory.obj
 0001:000ee19c       ?mem_strlen@@YAIK@Z        100ef19c f   memory.obj
 0001:000ee1f4       ?mem_strcpy@@YAXKK@Z       100ef1f4 f   memory.obj
 0001:000ee258       ?mem_memcpy@@YAXKKI@Z      100ef258 f   memory.obj
 0001:000ee2b4       ?MEM_BlockRead@@YAXKPAXI@Z 100ef2b4 f   memory.obj
 0001:000ee310       ?MEM_BlockWrite@@YAXKQBXI@Z 100ef310 f   memory.obj
 0001:000ee36c       ?MEM_BlockCopy@@YAXKKI@Z   100ef36c f   memory.obj
 0001:000ee388       ?MEM_StrCopy@@YAXKPADI@Z   100ef388 f   memory.obj
 0001:000ee3f8       ?MEM_TotalPages@@YAIXZ     100ef3f8 f   memory.obj
 0001:000ee41c       ?MEM_FreeLargest@@YAIXZ    100ef41c f   memory.obj
 0001:000ee49c       ?MEM_FreeTotal@@YAIXZ      100ef49c f   memory.obj
 0001:000ee4f8       ?MEM_AllocatedPages@@YAIJ@Z 100ef4f8 f   memory.obj
 0001:000ee544       ?MEM_AllocatePages@@YAJI_N@Z 100ef544 f   memory.obj
 0001:000ee66c       ?MEM_GetNextFreePage@@YAJXZ 100ef66c f   memory.obj
 0001:000ee694       ?MEM_ReleasePages@@YAXJ@Z  100ef694 f   memory.obj
 0001:000ee6e8       ?MEM_ReAllocatePages@@YA_NAAJI_N@Z 100ef6e8 f   memory.obj
 0001:000ee9c4       ?MEM_NextHandle@@YAJJ@Z    100ef9c4 f   memory.obj
 0001:000ee9fc       ?MEM_NextHandleAt@@YAJJI@Z 100ef9fc f   memory.obj
 0001:000eea44       ?MEM_A20_Enabled@@YA_NXZ   100efa44 f   memory.obj
 0001:000eea78       ?MEM_A20_Enable@@YAX_N@Z   100efa78 f   memory.obj
 0001:000eeaec       ?RemoveEMSPageFrame@@YAXXZ 100efaec f   memory.obj
 0001:000eeb34       ?PreparePCJRCartRom@@YAXXZ 100efb34 f   memory.obj
 0001:000eeb7c       ?GetMemBase@@YAPAEXZ       100efb7c f   memory.obj
 0001:000eeb9c       ?MEM_Init@@YAXPAVSection@@@Z 100efb9c f   memory.obj
 0001:000eefe0       ?BestMatch@@YAII@Z         100effe0 f i memory.obj
 0001:000ef0f8       ??0MEMORY@@QAA@PAVSection@@@Z 100f00f8 f i memory.obj
 0001:000ef220       ??0IllegalPageHandler@@QAA@XZ 100f0220 f i memory.obj
 0001:000ef270       ??0RAMPageHandler@@QAA@XZ  100f0270 f i memory.obj
 0001:000ef2c0       ??0ROMPageHandler@@QAA@XZ  100f02c0 f i memory.obj
 0001:000ef310       ??_GMEMORY@@UAAPAXI@Z      100f0310 f i memory.obj
 0001:000ef310       ??_EMEMORY@@UAAPAXI@Z      100f0310 f i memory.obj
 0001:000ef358       ??_GIllegalPageHandler@@UAAPAXI@Z 100f0358 f i memory.obj
 0001:000ef358       ??_EIllegalPageHandler@@UAAPAXI@Z 100f0358 f i memory.obj
 0001:000ef3a0       ?readb@IllegalPageHandler@@UAAIK@Z 100f03a0 f i memory.obj
 0001:000ef418       ?writeb@IllegalPageHandler@@UAAXKI@Z 100f0418 f i memory.obj
 0001:000ef48c       ??1IllegalPageHandler@@UAA@XZ 100f048c f i memory.obj
 0001:000ef4ac       ??_GRAMPageHandler@@UAAPAXI@Z 100f04ac f i memory.obj
 0001:000ef4ac       ??_ERAMPageHandler@@UAAPAXI@Z 100f04ac f i memory.obj
 0001:000ef4f4       ?GetHostReadPt@RAMPageHandler@@UAAPAEI@Z 100f04f4 f i memory.obj
 0001:000ef52c       ?GetHostWritePt@RAMPageHandler@@UAAPAEI@Z 100f052c f i memory.obj
 0001:000ef564       ??1RAMPageHandler@@UAA@XZ  100f0564 f i memory.obj
 0001:000ef584       ??_GROMPageHandler@@UAAPAXI@Z 100f0584 f i memory.obj
 0001:000ef584       ??_EROMPageHandler@@UAAPAXI@Z 100f0584 f i memory.obj
 0001:000ef5cc       ?writeb@ROMPageHandler@@UAAXKI@Z 100f05cc f i memory.obj
 0001:000ef62c       ?writew@ROMPageHandler@@UAAXKI@Z 100f062c f i memory.obj
 0001:000ef68c       ?writed@ROMPageHandler@@UAAXKI@Z 100f068c f i memory.obj
 0001:000ef6ec       ??1ROMPageHandler@@UAA@XZ  100f06ec f i memory.obj
 0001:000ef70c       ??1MEMORY@@UAA@XZ          100f070c f i memory.obj
 0001:000ef76c       ?MSG_Add@@YAXPBD0@Z        100f076c f   messages.obj
 0001:000ef8a8       ?MSG_Replace@@YAXPBD0@Z    100f08a8 f   messages.obj
 0001:000efa14       ?MSG_Get@@YAPBDPBD@Z       100f0a14 f   messages.obj
 0001:000efb28       ?MSG_Write@@YAXPBD@Z       100f0b28 f   messages.obj
 0001:000efc58       ?MSG_Init@@YAXPAVSection_prop@@@Z 100f0c58 f   messages.obj
 0001:000f0250       ?begin@?$list@UMessageBlock@@V?$allocator@UMessageBlock@@@std@@@std@@QAA?AV?$_List_iterator@V?$_List_val@U?$_List_simple_types@UMessageBlock@@@std@@@std@@@2@XZ 100f1250 f i messages.obj
 0001:000f029c       ??E?$_List_iterator@V?$_List_val@U?$_List_simple_types@UMessageBlock@@@std@@@std@@@std@@QAA?AV01@H@Z 100f129c f i messages.obj
 0001:000f0344       ??1?$_List_iterator@V?$_List_val@U?$_List_simple_types@UMessageBlock@@@std@@@std@@@std@@QAA@XZ 100f1344 f i messages.obj
 0001:000f0364       ?end@?$list@UMessageBlock@@V?$allocator@UMessageBlock@@@std@@@std@@QAA?AV?$_List_iterator@V?$_List_val@U?$_List_simple_types@UMessageBlock@@@std@@@std@@@2@XZ 100f1364 f i messages.obj
 0001:000f03a4       ??9?$_List_const_iterator@V?$_List_val@U?$_List_simple_types@UMessageBlock@@@std@@@std@@@std@@QBA_NABV01@@Z 100f13a4 f i messages.obj
 0001:000f0404       ??D?$_List_iterator@V?$_List_val@U?$_List_simple_types@UMessageBlock@@@std@@@std@@@std@@QBAAAUMessageBlock@@XZ 100f1404 f i messages.obj
 0001:000f043c       ??0MessageBlock@@QAA@PBD0@Z 100f143c f i messages.obj
 0001:000f04a8       ?push_back@?$list@UMessageBlock@@V?$allocator@UMessageBlock@@@std@@@std@@QAAX$$QAUMessageBlock@@@Z 100f14a8 f i messages.obj
 0001:000f0504       ??1MessageBlock@@QAA@XZ    100f1504 f i messages.obj
 0001:000f0530       ??0?$_List_const_iterator@V?$_List_val@U?$_List_simple_types@UMessageBlock@@@std@@@std@@@std@@QAA@ABV01@@Z 100f1530 f i messages.obj
 0001:000f056c       ?erase@?$list@UMessageBlock@@V?$allocator@UMessageBlock@@@std@@@std@@QAA?AV?$_List_iterator@V?$_List_val@U?$_List_simple_types@UMessageBlock@@@std@@@std@@@2@V?$_List_const_iterator@V?$_List_val@U?$_List_simple_types@UMessageBlock@@@std@@@std@@@2@@Z 100f156c f i messages.obj
 0001:000f0738       ??0?$list@UMessageBlock@@V?$allocator@UMessageBlock@@@std@@@std@@QAA@XZ 100f1738 f i messages.obj
 0001:000f0780       ?_Nextnode@?$_List_val@U?$_List_simple_types@UMessageBlock@@@std@@@std@@SAAAPAU?$_List_node@UMessageBlock@@PAX@2@PAU32@@Z 100f1780 f i messages.obj
 0001:000f07b0       ??0?$_List_iterator@V?$_List_val@U?$_List_simple_types@UMessageBlock@@@std@@@std@@@std@@QAA@PAU?$_List_node@UMessageBlock@@PAX@1@PBV?$_List_val@U?$_List_simple_types@UMessageBlock@@@std@@@1@@Z 100f17b0 f i messages.obj
 0001:000f07ec       ??0?$_List_iterator@V?$_List_val@U?$_List_simple_types@UMessageBlock@@@std@@@std@@@std@@QAA@ABV01@@Z 100f17ec f i messages.obj
 0001:000f0828       ??E?$_List_iterator@V?$_List_val@U?$_List_simple_types@UMessageBlock@@@std@@@std@@@std@@QAAAAV01@XZ 100f1828 f i messages.obj
 0001:000f085c       ??1?$_List_const_iterator@V?$_List_val@U?$_List_simple_types@UMessageBlock@@@std@@@std@@@std@@QAA@XZ 100f185c f i messages.obj
 0001:000f087c       ??8?$_List_const_iterator@V?$_List_val@U?$_List_simple_types@UMessageBlock@@@std@@@std@@@std@@QBA_NABV01@@Z 100f187c f i messages.obj
 0001:000f098c       ??D?$_List_const_iterator@V?$_List_val@U?$_List_simple_types@UMessageBlock@@@std@@@std@@@std@@QBAABUMessageBlock@@XZ 100f198c f i messages.obj
 0001:000f0a88       ??$forward@UMessageBlock@@@std@@YA$$QAUMessageBlock@@AAU1@@Z 100f1a88 f i messages.obj
 0001:000f0ab8       ?_Unchecked_end@?$list@UMessageBlock@@V?$allocator@UMessageBlock@@@std@@@std@@QAA?AV?$_List_unchecked_iterator@V?$_List_val@U?$_List_simple_types@UMessageBlock@@@std@@@std@@@2@XZ 100f1ab8 f i messages.obj
 0001:000f0af8       ??$_Insert@UMessageBlock@@@?$list@UMessageBlock@@V?$allocator@UMessageBlock@@@std@@@std@@QAAXV?$_List_unchecked_const_iterator@V?$_List_val@U?$_List_simple_types@UMessageBlock@@@std@@@std@@U_Iterator_base0@2@@1@$$QAUMessageBlock@@@Z 100f1af8 f i messages.obj
 0001:000f0b98       ??0?$_List_unchecked_const_iterator@V?$_List_val@U?$_List_simple_types@UMessageBlock@@@std@@@std@@U_Iterator_base12@2@@std@@QAA@ABV01@@Z 100f1b98 f i messages.obj
 0001:000f0be8       ?_Getcont@_Iterator_base12@std@@QBAPBU_Container_base12@2@XZ 100f1be8 f i messages.obj
 0001:000f0c30       ??E?$_List_const_iterator@V?$_List_val@U?$_List_simple_types@UMessageBlock@@@std@@@std@@@std@@QAA?AV01@H@Z 100f1c30 f i messages.obj
 0001:000f0cd8       ?_Mynode@?$_List_unchecked_const_iterator@V?$_List_val@U?$_List_simple_types@UMessageBlock@@@std@@@std@@U_Iterator_base12@2@@std@@QBAPAU?$_List_node@UMessageBlock@@PAX@2@XZ 100f1cd8 f i messages.obj
 0001:000f0d0c       ?_Orphan_ptr@?$list@UMessageBlock@@V?$allocator@UMessageBlock@@@std@@@std@@QBAXAAV12@PAU?$_List_node@UMessageBlock@@PAX@2@@Z 100f1d0c f i messages.obj
 0001:000f0e20       ?_Prevnode@?$_List_val@U?$_List_simple_types@UMessageBlock@@@std@@@std@@SAAAPAU?$_List_node@UMessageBlock@@PAX@2@PAU32@@Z 100f1e20 f i messages.obj
 0001:000f0e50       ?_Freenode@?$_List_buy@UMessageBlock@@V?$allocator@UMessageBlock@@@std@@@std@@QAAXPAU?$_List_node@UMessageBlock@@PAX@2@@Z 100f1e50 f i messages.obj
 0001:000f0f1c       ?_Make_iter@?$list@UMessageBlock@@V?$allocator@UMessageBlock@@@std@@@std@@QBA?AV?$_List_iterator@V?$_List_val@U?$_List_simple_types@UMessageBlock@@@std@@@std@@@2@V?$_List_const_iterator@V?$_List_val@U?$_List_simple_types@UMessageBlock@@@std@@@std@@@2@@Z 100f1f1c f i messages.obj
 0001:000f0f64       ??0?$allocator@UMessageBlock@@@std@@QAA@XZ 100f1f64 f i messages.obj
 0001:000f0f94       ??0?$_List_buy@UMessageBlock@@V?$allocator@UMessageBlock@@@std@@@std@@QAA@ABV?$allocator@UMessageBlock@@@1@@Z 100f1f94 f i messages.obj
 0001:000f0fd0       ??1?$list@UMessageBlock@@V?$allocator@UMessageBlock@@@std@@@std@@QAA@XZ 100f1fd0 f i messages.obj
 0001:000f0ff8       ??0?$_List_const_iterator@V?$_List_val@U?$_List_simple_types@UMessageBlock@@@std@@@std@@@std@@QAA@PAU?$_List_node@UMessageBlock@@PAX@1@PBV?$_List_val@U?$_List_simple_types@UMessageBlock@@@std@@@1@@Z 100f1ff8 f i messages.obj
 0001:000f1034       ??E?$_List_const_iterator@V?$_List_val@U?$_List_simple_types@UMessageBlock@@@std@@@std@@@std@@QAAAAV01@XZ 100f2034 f i messages.obj
 0001:000f1140       ??1?$_List_unchecked_const_iterator@V?$_List_val@U?$_List_simple_types@UMessageBlock@@@std@@@std@@U_Iterator_base12@2@@std@@QAA@XZ 100f2140 f i messages.obj
 0001:000f1160       ?_Myval@?$_List_val@U?$_List_simple_types@UMessageBlock@@@std@@@std@@SAAAUMessageBlock@@PAU?$_List_node@UMessageBlock@@PAX@2@@Z 100f2160 f i messages.obj
 0001:000f1190       ??0?$_List_unchecked_iterator@V?$_List_val@U?$_List_simple_types@UMessageBlock@@@std@@@std@@@std@@QAA@PAU?$_List_node@UMessageBlock@@PAX@1@PBV?$_List_val@U?$_List_simple_types@UMessageBlock@@@std@@@1@@Z 100f2190 f i messages.obj
 0001:000f11cc       ?_Mynode@?$_List_unchecked_const_iterator@V?$_List_val@U?$_List_simple_types@UMessageBlock@@@std@@@std@@U_Iterator_base0@2@@std@@QBAPAU?$_List_node@UMessageBlock@@PAX@2@XZ 100f21cc f i messages.obj
 0001:000f11fc       ??$_Buynode@UMessageBlock@@@?$_List_buy@UMessageBlock@@V?$allocator@UMessageBlock@@@std@@@std@@QAAPAU?$_List_node@UMessageBlock@@PAX@1@PAU21@0$$QAUMessageBlock@@@Z 100f21fc f i messages.obj
 0001:000f12bc       ?_Incsize@?$list@UMessageBlock@@V?$allocator@UMessageBlock@@@std@@@std@@QAAXI@Z 100f22bc f i messages.obj
 0001:000f132c       ??0?$_Iterator012@Ubidirectional_iterator_tag@std@@UMessageBlock@@HPBU3@ABU3@U_Iterator_base12@2@@std@@QAA@ABU01@@Z 100f232c f i messages.obj
 0001:000f1368       ?_Getpnext@_Iterator_base12@std@@QAAPAPAU12@XZ 100f2368 f i messages.obj
 0001:000f1398       ?_Clrcont@_Iterator_base12@std@@QAAXXZ 100f2398 f i messages.obj
 0001:000f13b8       ??$addressof@PAU?$_List_node@UMessageBlock@@PAX@std@@@std@@YAPAPAU?$_List_node@UMessageBlock@@PAX@0@AAPAU10@@Z 100f23b8 f i messages.obj
 0001:000f13e8       ?_Getal@?$_List_alloc@$0A@U?$_List_base_types@UMessageBlock@@V?$allocator@UMessageBlock@@@std@@@std@@@std@@QBA?AU?$_Wrap_alloc@V?$allocator@U?$_List_node@UMessageBlock@@PAX@std@@@std@@@2@XZ 100f23e8 f i messages.obj
 0001:000f141c       ??$destroy@PAU?$_List_node@UMessageBlock@@PAX@std@@@?$_Wrap_alloc@V?$allocator@U?$_List_node@UMessageBlock@@PAX@std@@@std@@@std@@QAAXPAPAU?$_List_node@UMessageBlock@@PAX@1@@Z 100f241c f i messages.obj
 0001:000f143c       ??$addressof@UMessageBlock@@@std@@YAPAUMessageBlock@@AAU1@@Z 100f243c f i messages.obj
 0001:000f146c       ??$destroy@UMessageBlock@@@?$_Wrap_alloc@V?$allocator@U?$_List_node@UMessageBlock@@PAX@std@@@std@@@std@@QAAXPAUMessageBlock@@@Z 100f246c f i messages.obj
 0001:000f148c       ?deallocate@?$_Wrap_alloc@V?$allocator@U?$_List_node@UMessageBlock@@PAX@std@@@std@@@std@@QAAXPAU?$_List_node@UMessageBlock@@PAX@2@I@Z 100f248c f i messages.obj
 0001:000f14b0       ??0?$_List_alloc@$0A@U?$_List_base_types@UMessageBlock@@V?$allocator@UMessageBlock@@@std@@@std@@@std@@QAA@ABV?$allocator@UMessageBlock@@@1@@Z 100f24b0 f i messages.obj
 0001:000f154c       ?_Tidy@?$list@UMessageBlock@@V?$allocator@UMessageBlock@@@std@@@std@@QAAXXZ 100f254c f i messages.obj
 0001:000f156c       ??1?$_List_buy@UMessageBlock@@V?$allocator@UMessageBlock@@@std@@@std@@QAA@XZ 100f256c f i messages.obj
 0001:000f158c       ??0?$_List_unchecked_const_iterator@V?$_List_val@U?$_List_simple_types@UMessageBlock@@@std@@@std@@U_Iterator_base12@2@@std@@QAA@PAU?$_List_node@UMessageBlock@@PAX@1@PBV?$_List_val@U?$_List_simple_types@UMessageBlock@@@std@@@1@@Z 100f258c f i messages.obj
 0001:000f15f8       ??1?$_Iterator012@Ubidirectional_iterator_tag@std@@UMessageBlock@@HPBU3@ABU3@U_Iterator_base12@2@@std@@QAA@XZ 100f25f8 f i messages.obj
 0001:000f1618       ??0?$_List_unchecked_const_iterator@V?$_List_val@U?$_List_simple_types@UMessageBlock@@@std@@@std@@U_Iterator_base0@2@@std@@QAA@PAU?$_List_node@UMessageBlock@@PAX@1@PBV?$_List_val@U?$_List_simple_types@UMessageBlock@@@std@@@1@@Z 100f2618 f i messages.obj
 0001:000f1658       ?_Buynode0@?$_List_alloc@$0A@U?$_List_base_types@UMessageBlock@@V?$allocator@UMessageBlock@@@std@@@std@@@std@@QAAPAU?$_List_node@UMessageBlock@@PAX@2@PAU32@0@Z 100f2658 f i messages.obj
 0001:000f1758       ??$construct@UMessageBlock@@U1@@?$_Wrap_alloc@V?$allocator@U?$_List_node@UMessageBlock@@PAX@std@@@std@@@std@@QAAXPAUMessageBlock@@$$QAU2@@Z 100f2758 f i messages.obj
 0001:000f1794       ?max_size@?$list@UMessageBlock@@V?$allocator@UMessageBlock@@@std@@@std@@QBAIXZ 100f2794 f i messages.obj
 0001:000f17dc       ??0_Iterator_base12@std@@QAA@ABU01@@Z 100f27dc f i messages.obj
 0001:000f1824       ??0?$_Wrap_alloc@V?$allocator@U?$_List_node@UMessageBlock@@PAX@std@@@std@@@std@@QAA@XZ 100f2824 f i messages.obj
 0001:000f1858       ??$destroy@PAU?$_List_node@UMessageBlock@@PAX@std@@@?$allocator_traits@V?$allocator@U?$_List_node@UMessageBlock@@PAX@std@@@std@@@std@@SAXAAV?$allocator@U?$_List_node@UMessageBlock@@PAX@std@@@1@PAPAU?$_List_node@UMessageBlock@@PAX@1@@Z 100f2858 f i messages.obj
 0001:000f1878       ??$destroy@UMessageBlock@@@?$allocator_traits@V?$allocator@U?$_List_node@UMessageBlock@@PAX@std@@@std@@@std@@SAXAAV?$allocator@U?$_List_node@UMessageBlock@@PAX@std@@@1@PAUMessageBlock@@@Z 100f2878 f i messages.obj
 0001:000f1898       ?deallocate@?$allocator@U?$_List_node@UMessageBlock@@PAX@std@@@std@@QAAXPAU?$_List_node@UMessageBlock@@PAX@2@I@Z 100f2898 f i messages.obj
 0001:000f18b8       ??0?$_List_val@U?$_List_simple_types@UMessageBlock@@@std@@@std@@QAA@XZ 100f28b8 f i messages.obj
 0001:000f1910       ?_Buyheadnode@?$_List_alloc@$0A@U?$_List_base_types@UMessageBlock@@V?$allocator@UMessageBlock@@@std@@@std@@@std@@QAAPAU?$_List_node@UMessageBlock@@PAX@2@XZ 100f2910 f i messages.obj
 0001:000f194c       ?_Alloc_proxy@?$_List_alloc@$0A@U?$_List_base_types@UMessageBlock@@V?$allocator@UMessageBlock@@@std@@@std@@@std@@QAAXXZ 100f294c f i messages.obj
 0001:000f19d0       ?_Freeheadnode@?$_List_alloc@$0A@U?$_List_base_types@UMessageBlock@@V?$allocator@UMessageBlock@@@std@@@std@@@std@@QAAXPAU?$_List_node@UMessageBlock@@PAX@2@@Z 100f29d0 f i messages.obj
 0001:000f1a70       ??1?$_List_val@U?$_List_simple_types@UMessageBlock@@@std@@@std@@QAA@XZ 100f2a70 f i messages.obj
 0001:000f1a98       ?clear@?$list@UMessageBlock@@V?$allocator@UMessageBlock@@@std@@@std@@QAAXXZ 100f2a98 f i messages.obj
 0001:000f1b60       ??1?$_List_alloc@$0A@U?$_List_base_types@UMessageBlock@@V?$allocator@UMessageBlock@@@std@@@std@@@std@@QAA@XZ 100f2b60 f i messages.obj
 0001:000f1b94       ??0?$_Iterator012@Ubidirectional_iterator_tag@std@@UMessageBlock@@HPBU3@ABU3@U_Iterator_base12@2@@std@@QAA@XZ 100f2b94 f i messages.obj
 0001:000f1bcc       ?_Adopt@_Iterator_base12@std@@QAAXPBU_Container_base12@2@@Z 100f2bcc f i messages.obj
 0001:000f1ccc       ??1_Iterator_base12@std@@QAA@XZ 100f2ccc f i messages.obj
 0001:000f1d3c       ?_Adopt@_Iterator_base0@std@@QAAXPBX@Z 100f2d3c f i messages.obj
 0001:000f1d54       ?allocate@?$_Wrap_alloc@V?$allocator@U?$_List_node@UMessageBlock@@PAX@std@@@std@@@std@@QAAPAU?$_List_node@UMessageBlock@@PAX@2@I@Z 100f2d54 f i messages.obj
 0001:000f1d90       ??$construct@PAU?$_List_node@UMessageBlock@@PAX@std@@AAPAU12@@?$_Wrap_alloc@V?$allocator@U?$_List_node@UMessageBlock@@PAX@std@@@std@@@std@@QAAXPAPAU?$_List_node@UMessageBlock@@PAX@1@AAPAU21@@Z 100f2d90 f i messages.obj
 0001:000f1dcc       ??$construct@UMessageBlock@@U1@@?$allocator_traits@V?$allocator@U?$_List_node@UMessageBlock@@PAX@std@@@std@@@std@@SAXAAV?$allocator@U?$_List_node@UMessageBlock@@PAX@std@@@1@PAUMessageBlock@@$$QAU3@@Z 100f2dcc f i messages.obj
 0001:000f1e08       ?max_size@?$_Wrap_alloc@V?$allocator@U?$_List_node@UMessageBlock@@PAX@std@@@std@@@std@@QBAIXZ 100f2e08 f i messages.obj
 0001:000f1e40       ??4_Iterator_base12@std@@QAAAAU01@ABU01@@Z 100f2e40 f i messages.obj
 0001:000f1f00       ??0?$allocator@U?$_List_node@UMessageBlock@@PAX@std@@@std@@QAA@XZ 100f2f00 f i messages.obj
 0001:000f1f30       ??$destroy@PAU?$_List_node@UMessageBlock@@PAX@std@@@?$allocator@U?$_List_node@UMessageBlock@@PAX@std@@@std@@QAAXPAPAU?$_List_node@UMessageBlock@@PAX@1@@Z 100f2f30 f i messages.obj
 0001:000f1f48       ??$destroy@UMessageBlock@@@?$allocator@U?$_List_node@UMessageBlock@@PAX@std@@@std@@QAAXPAUMessageBlock@@@Z 100f2f48 f i messages.obj
 0001:000f1f68       ?_Free_proxy@?$_List_alloc@$0A@U?$_List_base_types@UMessageBlock@@V?$allocator@UMessageBlock@@@std@@@std@@@std@@QAAXXZ 100f2f68 f i messages.obj
 0001:000f1fe8       ??0_Iterator_base12@std@@QAA@XZ 100f2fe8 f i messages.obj
 0001:000f2028       ?_Orphan_me@_Iterator_base12@std@@QAAXXZ 100f3028 f i messages.obj
 0001:000f20c4       ?allocate@?$allocator@U?$_List_node@UMessageBlock@@PAX@std@@@std@@QAAPAU?$_List_node@UMessageBlock@@PAX@2@I@Z 100f30c4 f i messages.obj
 0001:000f2100       ??$forward@AAPAU?$_List_node@UMessageBlock@@PAX@std@@@std@@YAAAPAU?$_List_node@UMessageBlock@@PAX@0@AAPAU10@@Z 100f3100 f i messages.obj
 0001:000f2130       ??$construct@PAU?$_List_node@UMessageBlock@@PAX@std@@AAPAU12@@?$allocator_traits@V?$allocator@U?$_List_node@UMessageBlock@@PAX@std@@@std@@@std@@SAXAAV?$allocator@U?$_List_node@UMessageBlock@@PAX@std@@@1@PAPAU?$_List_node@UMessageBlock@@PAX@1@AAPAU31@@Z 100f3130 f i messages.obj
 0001:000f216c       ??$construct@UMessageBlock@@U1@@?$allocator@U?$_List_node@UMessageBlock@@PAX@std@@@std@@QAAXPAUMessageBlock@@$$QAU2@@Z 100f316c f i messages.obj
 0001:000f21f4       ?max_size@?$allocator_traits@V?$allocator@U?$_List_node@UMessageBlock@@PAX@std@@@std@@@std@@SAIABV?$allocator@U?$_List_node@UMessageBlock@@PAX@std@@@2@@Z 100f31f4 f i messages.obj
 0001:000f222c       ??_GMessageBlock@@QAAPAXI@Z 100f322c f i messages.obj
 0001:000f2274       ??$_Allocate@U?$_List_node@UMessageBlock@@PAX@std@@@std@@YAPAU?$_List_node@UMessageBlock@@PAX@0@IPAU10@@Z 100f3274 f i messages.obj
 0001:000f22ec       ??$construct@PAU?$_List_node@UMessageBlock@@PAX@std@@AAPAU12@@?$allocator@U?$_List_node@UMessageBlock@@PAX@std@@@std@@QAAXPAPAU?$_List_node@UMessageBlock@@PAX@1@AAPAU21@@Z 100f32ec f i messages.obj
 0001:000f2370       ??0MessageBlock@@QAA@ABU0@@Z 100f3370 f i messages.obj
 0001:000f23e0       ?max_size@?$allocator@U?$_List_node@UMessageBlock@@PAX@std@@@std@@QBAIXZ 100f33e0 f i messages.obj
 0001:000f2410       ??0?$basic_string@DU?$char_traits@D@std@@V?$allocator@D@2@@std@@QAA@ABV01@@Z 100f3410 f i messages.obj
 0001:000f24a8       ?select_on_container_copy_construction@?$_Wrap_alloc@V?$allocator@D@std@@@std@@QBA?AU12@XZ 100f34a8 f i messages.obj
 0001:000f24f0       ?select_on_container_copy_construction@?$allocator_traits@V?$allocator@D@std@@@std@@SA?AV?$allocator@D@2@ABV32@@Z 100f34f0 f i messages.obj
 0001:000f2528       ??0?$_Wrap_alloc@V?$allocator@D@std@@@std@@QAA@ABV?$allocator@D@1@@Z 100f3528 f i messages.obj
 0001:000f2560       ?select_on_container_copy_construction@?$allocator@D@std@@QBA?AV12@XZ 100f3560 f i messages.obj
 0001:000f2598       ??0?$allocator@D@std@@QAA@ABV01@@Z 100f3598 f i messages.obj
 0001:000f25c8       ?SaturateWordSToByteS@@YACF@Z 100f35c8 f   mmx.obj
 0001:000f2618       ?SaturateDwordSToWordS@@YAFJ@Z 100f3618 f   mmx.obj
 0001:000f266c       ?SaturateWordSToByteU@@YAEF@Z 100f366c f   mmx.obj
 0001:000f26b8       ?SaturateDwordSToWordU@@YAGJ@Z 100f36b8 f   mmx.obj
 0001:000f2704       ?setFPU@@YAXG@Z            100f3704 f   mmx.obj
 0001:000f28a0       ?readb@PageHandler@@UAAIK@Z 100f38a0 f   paging.obj
 0001:000f28c8       ?readw@PageHandler@@UAAIK@Z 100f38c8 f   paging.obj
 0001:000f2918       ?readd@PageHandler@@UAAIK@Z 100f3918 f   paging.obj
 0001:000f2998       ?writeb@PageHandler@@UAAXKI@Z 100f3998 f   paging.obj
 0001:000f29b4       ?writew@PageHandler@@UAAXKI@Z 100f39b4 f   paging.obj
 0001:000f29f0       ?writed@PageHandler@@UAAXKI@Z 100f39f0 f   paging.obj
 0001:000f2a58       ?GetHostReadPt@PageHandler@@UAAPAEI@Z 100f3a58 f   paging.obj
 0001:000f2a7c       ?GetHostWritePt@PageHandler@@UAAPAEI@Z 100f3a7c f   paging.obj
 0001:000f2aa0       ?readb_checked@PageHandler@@UAA_NKPAE@Z 100f3aa0 f   paging.obj
 0001:000f2ae0       ?readw_checked@PageHandler@@UAA_NKPAG@Z 100f3ae0 f   paging.obj
 0001:000f2b20       ?readd_checked@PageHandler@@UAA_NKPAK@Z 100f3b20 f   paging.obj
 0001:000f2b60       ?writeb_checked@PageHandler@@UAA_NKI@Z 100f3b60 f   paging.obj
 0001:000f2b98       ?writew_checked@PageHandler@@UAA_NKI@Z 100f3b98 f   paging.obj
 0001:000f2bd0       ?writed_checked@PageHandler@@UAA_NKI@Z 100f3bd0 f   paging.obj
 0001:000f2c08       ?PAGING_PageFault@@YAXKII@Z 100f3c08 f   paging.obj
 0001:000f2d64       ?PAGING_MakePhysPage@@YA_NAAI@Z 100f3d64 f   paging.obj
 0001:000f2e54       ?PAGING_GetDirBase@@YAIXZ  100f3e54 f   paging.obj
 0001:000f2e78       ?PAGING_ForcePageInit@@YA_NI@Z 100f3e78 f   paging.obj
 0001:000f2ef4       ?PAGING_InitTLBBank@@YAXPAPAUtlb_entry@@@Z 100f3ef4 f   paging.obj
 0001:000f2f44       ?PAGING_InitTLB@@YAXXZ     100f3f44 f   paging.obj
 0001:000f2f70       ?PAGING_ClearTLB@@YAXXZ    100f3f70 f   paging.obj
 0001:000f3020       ?PAGING_UnlinkPages@@YAXII@Z 100f4020 f   paging.obj
 0001:000f3088       ?PAGING_MapPage@@YAXII@Z   100f4088 f   paging.obj
 0001:000f311c       ?PAGING_LinkPage@@YAXII@Z  100f411c f   paging.obj
 0001:000f3268       ?PAGING_LinkPage_ReadOnly@@YAXII@Z 100f4268 f   paging.obj
 0001:000f3390       ?PAGING_SetDirBase@@YAXI@Z 100f4390 f   paging.obj
 0001:000f33d4       ?PAGING_Enable@@YAX_N@Z    100f43d4 f   paging.obj
 0001:000f3460       ?PAGING_Enabled@@YA_NXZ    100f4460 f   paging.obj
 0001:000f3494       ?PAGING_Init@@YAXPAVSection@@@Z 100f4494 f   paging.obj
 0001:000f41c0       ??RLOG@@QAAXPBDNNN@Z       100f51c0 f i paging.obj
 0001:000f41fc       ?InitPageForced@InitPageHandler@@QAAXI@Z 100f51fc f i paging.obj
 0001:000f4320       ?InitPageForced@InitPageUserROHandler@@QAAXI@Z 100f5320 f i paging.obj
 0001:000f4444       ??0PAGING@@QAA@PAVSection@@@Z 100f5444 f i paging.obj
 0001:000f450c       ??0InitPageHandler@@QAA@XZ 100f550c f i paging.obj
 0001:000f455c       ??0InitPageUserROHandler@@QAA@XZ 100f555c f i paging.obj
 0001:000f45ac       ??_EPAGING@@UAAPAXI@Z      100f55ac f i paging.obj
 0001:000f45ac       ??_GPAGING@@UAAPAXI@Z      100f55ac f i paging.obj
 0001:000f45f4       ??_GInitPageHandler@@UAAPAXI@Z 100f55f4 f i paging.obj
 0001:000f45f4       ??_EInitPageHandler@@UAAPAXI@Z 100f55f4 f i paging.obj
 0001:000f463c       ?readb@InitPageHandler@@UAAIK@Z 100f563c f i paging.obj
 0001:000f46a8       ?readw@InitPageHandler@@UAAIK@Z 100f56a8 f i paging.obj
 0001:000f4714       ?readd@InitPageHandler@@UAAIK@Z 100f5714 f i paging.obj
 0001:000f4774       ?writeb@InitPageHandler@@UAAXKI@Z 100f5774 f i paging.obj
 0001:000f47c4       ?writew@InitPageHandler@@UAAXKI@Z 100f57c4 f i paging.obj
 0001:000f4814       ?writed@InitPageHandler@@UAAXKI@Z 100f5814 f i paging.obj
 0001:000f4864       ?readb_checked@InitPageHandler@@UAA_NKPAE@Z 100f5864 f i paging.obj
 0001:000f48d4       ?readw_checked@InitPageHandler@@UAA_NKPAG@Z 100f58d4 f i paging.obj
 0001:000f4944       ?readd_checked@InitPageHandler@@UAA_NKPAK@Z 100f5944 f i paging.obj
 0001:000f49b4       ?writeb_checked@InitPageHandler@@UAA_NKI@Z 100f59b4 f i paging.obj
 0001:000f4a1c       ?writew_checked@InitPageHandler@@UAA_NKI@Z 100f5a1c f i paging.obj
 0001:000f4a84       ?writed_checked@InitPageHandler@@UAA_NKI@Z 100f5a84 f i paging.obj
 0001:000f4ae8       ??1InitPageHandler@@UAA@XZ 100f5ae8 f i paging.obj
 0001:000f4b08       ??_GInitPageUserROHandler@@UAAPAXI@Z 100f5b08 f i paging.obj
 0001:000f4b08       ??_EInitPageUserROHandler@@UAAPAXI@Z 100f5b08 f i paging.obj
 0001:000f4b50       ?writeb@InitPageUserROHandler@@UAAXKI@Z 100f5b50 f i paging.obj
 0001:000f4ba8       ?writew@InitPageUserROHandler@@UAAXKI@Z 100f5ba8 f i paging.obj
 0001:000f4c00       ?writed@InitPageUserROHandler@@UAAXKI@Z 100f5c00 f i paging.obj
 0001:000f4c4c       ?writeb_checked@InitPageUserROHandler@@UAA_NKI@Z 100f5c4c f i paging.obj
 0001:000f4cec       ?writew_checked@InitPageUserROHandler@@UAA_NKI@Z 100f5cec f i paging.obj
 0001:000f4d8c       ?writed_checked@InitPageUserROHandler@@UAA_NKI@Z 100f5d8c f i paging.obj
 0001:000f4e20       ??1InitPageUserROHandler@@UAA@XZ 100f5e20 f i paging.obj
 0001:000f4e40       ??1PAGING@@UAA@XZ          100f5e40 f i paging.obj
 0001:000f4e70       ?InitPage@InitPageHandler@@QAAII_N@Z 100f5e70 f i paging.obj
 0001:000f5244       ?InitPageCheckOnly@InitPageHandler@@QAA_NI_N@Z 100f6244 f i paging.obj
 0001:000f5430       ?InitPage@InitPageUserROHandler@@QAAXII@Z 100f6430 f i paging.obj
 0001:000f5624       ?InitPageCheckOnly@InitPageUserROHandler@@QAAIII@Z 100f6624 f i paging.obj
 0001:000f57e8       ??RLOG@@QAAXPBDNNNNN@Z     100f67e8 f i paging.obj
 0001:000f5830       ?destroy@Value@@AAAXXZ     100f6830 f   setup.obj
 0001:000f5884       ?copy@Value@@AAAAAV1@ABV1@@Z 100f6884 f   setup.obj
 0001:000f5900       ?plaincopy@Value@@AAAXABV1@@Z 100f6900 f   setup.obj
 0001:000f59ac       ??BValue@@QBA_NXZ          100f69ac f   setup.obj
 0001:000f5a08       ??BValue@@QBA?AVHex@@XZ    100f6a08 f   setup.obj
 0001:000f5a64       ??BValue@@QBAHXZ           100f6a64 f   setup.obj
 0001:000f5abc       ??BValue@@QBANXZ           100f6abc f   setup.obj
 0001:000f5b1c       ??BValue@@QBAPBDXZ         100f6b1c f   setup.obj
 0001:000f5b80       ??8Value@@QAA_NABV0@@Z     100f6b80 f   setup.obj
 0001:000f5ca4       ?SetValue@Value@@QAAXABV?$basic_string@DU?$char_traits@D@std@@V?$allocator@D@2@@std@@W4Etype@1@@Z 100f6ca4 f   setup.obj
 0001:000f5dbc       ?set_hex@Value@@AAAXABV?$basic_string@DU?$char_traits@D@std@@V?$allocator@D@2@@std@@@Z 100f6dbc f   setup.obj
 0001:000f5e70       ?set_int@Value@@AAAXABV?$basic_string@DU?$char_traits@D@std@@V?$allocator@D@2@@std@@@Z 100f6e70 f   setup.obj
 0001:000f5f00       ?set_double@Value@@AAAXABV?$basic_string@DU?$char_traits@D@std@@V?$allocator@D@2@@std@@@Z 100f6f00 f   setup.obj
 0001:000f5f98       ?set_bool@Value@@AAAXABV?$basic_string@DU?$char_traits@D@std@@V?$allocator@D@2@@std@@@Z 100f6f98 f   setup.obj
 0001:000f60e0       ?set_string@Value@@AAAXABV?$basic_string@DU?$char_traits@D@std@@V?$allocator@D@2@@std@@@Z 100f70e0 f   setup.obj
 0001:000f6160       ?ToString@Value@@QBA?AV?$basic_string@DU?$char_traits@D@std@@V?$allocator@D@2@@std@@XZ 100f7160 f   setup.obj
 0001:000f6304       ?CheckValue@Property@@UAA_NABVValue@@_N@Z 100f7304 f   setup.obj
 0001:000f64ec       ?Set_help@Property@@QAAXABV?$basic_string@DU?$char_traits@D@std@@V?$allocator@D@2@@std@@@Z 100f74ec f   setup.obj
 0001:000f65a8       ?Get_help@Property@@QAAPBDXZ 100f75a8 f   setup.obj
 0001:000f6664       ?CheckValue@Prop_int@@UAA_NABVValue@@_N@Z 100f7664 f   setup.obj
 0001:000f68a4       ?SetValue@Prop_double@@UAAXABV?$basic_string@DU?$char_traits@D@std@@V?$allocator@D@2@@std@@@Z 100f78a4 f   setup.obj
 0001:000f6914       ?SetValue@Prop_int@@UAAXABV?$basic_string@DU?$char_traits@D@std@@V?$allocator@D@2@@std@@@Z 100f7914 f   setup.obj
 0001:000f6984       ?SetValue@Prop_string@@UAAXABV?$basic_string@DU?$char_traits@D@std@@V?$allocator@D@2@@std@@@Z 100f7984 f   setup.obj
 0001:000f6a44       ?CheckValue@Prop_string@@UAA_NABVValue@@_N@Z 100f7a44 f   setup.obj
 0001:000f6d10       ?SetValue@Prop_path@@UAAXABV?$basic_string@DU?$char_traits@D@std@@V?$allocator@D@2@@std@@@Z 100f7d10 f   setup.obj
 0001:000f6eb0       ?SetValue@Prop_bool@@UAAXABV?$basic_string@DU?$char_traits@D@std@@V?$allocator@D@2@@std@@@Z 100f7eb0 f   setup.obj
 0001:000f6ed0       ?SetValue@Prop_hex@@UAAXABV?$basic_string@DU?$char_traits@D@std@@V?$allocator@D@2@@std@@@Z 100f7ed0 f   setup.obj
 0001:000f6f40       ?make_default_value@Prop_multival@@IAAXXZ 100f7f40 f   setup.obj
 0001:000f70ac       ?SetValue@Prop_multival_remain@@UAAXABV?$basic_string@DU?$char_traits@D@std@@V?$allocator@D@2@@std@@@Z 100f80ac f   setup.obj
 0001:000f7364       ?SetValue@Prop_multival@@UAAXABV?$basic_string@DU?$char_traits@D@std@@V?$allocator@D@2@@std@@@Z 100f8364 f   setup.obj
 0001:000f75ec       ?GetValues@Property@@UBAABV?$vector@VValue@@V?$allocator@VValue@@@std@@@std@@XZ 100f85ec f   setup.obj
 0001:000f7614       ?GetValues@Prop_multival@@UBAABV?$vector@VValue@@V?$allocator@VValue@@@std@@@std@@XZ 100f8614 f   setup.obj
 0001:000f7708       ?Set_values@Property@@QAAXPBQBD@Z 100f8708 f   setup.obj
 0001:000f77e0       ?Add_int@Section_prop@@QAAPAVProp_int@@ABV?$basic_string@DU?$char_traits@D@std@@V?$allocator@D@2@@std@@W4Value@Changeable@Property@@H@Z 100f87e0 f   setup.obj
 0001:000f7860       ?Add_string@Section_prop@@QAAPAVProp_string@@ABV?$basic_string@DU?$char_traits@D@std@@V?$allocator@D@2@@std@@W4Value@Changeable@Property@@QBD@Z 100f8860 f   setup.obj
 0001:000f78e0       ?Add_path@Section_prop@@QAAPAVProp_path@@ABV?$basic_string@DU?$char_traits@D@std@@V?$allocator@D@2@@std@@W4Value@Changeable@Property@@QBD@Z 100f88e0 f   setup.obj
 0001:000f7960       ?Add_bool@Section_prop@@QAAPAVProp_bool@@ABV?$basic_string@DU?$char_traits@D@std@@V?$allocator@D@2@@std@@W4Value@Changeable@Property@@_N@Z 100f8960 f   setup.obj
 0001:000f79e4       ?Add_hex@Section_prop@@QAAPAVProp_hex@@ABV?$basic_string@DU?$char_traits@D@std@@V?$allocator@D@2@@std@@W4Value@Changeable@Property@@VHex@@@Z 100f89e4 f   setup.obj
 0001:000f7a64       ?Add_multi@Section_prop@@QAAPAVProp_multival@@ABV?$basic_string@DU?$char_traits@D@std@@V?$allocator@D@2@@std@@W4Value@Changeable@Property@@0@Z 100f8a64 f   setup.obj
 0001:000f7ae4       ?Add_multiremain@Section_prop@@QAAPAVProp_multival_remain@@ABV?$basic_string@DU?$char_traits@D@std@@V?$allocator@D@2@@std@@W4Value@Changeable@Property@@0@Z 100f8ae4 f   setup.obj
 0001:000f7b64       ?Get_int@Section_prop@@QBAHABV?$basic_string@DU?$char_traits@D@std@@V?$allocator@D@2@@std@@@Z 100f8b64 f   setup.obj
 0001:000f7c88       ?Get_bool@Section_prop@@QBA_NABV?$basic_string@DU?$char_traits@D@std@@V?$allocator@D@2@@std@@@Z 100f8c88 f   setup.obj
 0001:000f7dbc       ?Get_double@Section_prop@@QBANABV?$basic_string@DU?$char_traits@D@std@@V?$allocator@D@2@@std@@@Z 100f8dbc f   setup.obj
 0001:000f7ef8       ?Get_path@Section_prop@@QBAPAVProp_path@@ABV?$basic_string@DU?$char_traits@D@std@@V?$allocator@D@2@@std@@@Z 100f8ef8 f   setup.obj
 0001:000f8048       ?Get_multival@Section_prop@@QBAPAVProp_multival@@ABV?$basic_string@DU?$char_traits@D@std@@V?$allocator@D@2@@std@@@Z 100f9048 f   setup.obj
 0001:000f8198       ?Get_multivalremain@Section_prop@@QBAPAVProp_multival_remain@@ABV?$basic_string@DU?$char_traits@D@std@@V?$allocator@D@2@@std@@@Z 100f9198 f   setup.obj
 0001:000f82e8       ?Get_prop@Section_prop@@QAAPAVProperty@@H@Z 100f92e8 f   setup.obj
 0001:000f83e4       ?Get_string@Section_prop@@QBAPBDABV?$basic_string@DU?$char_traits@D@std@@V?$allocator@D@2@@std@@@Z 100f93e4 f   setup.obj
 0001:000f850c       ?Get_hex@Section_prop@@QBA?AVHex@@ABV?$basic_string@DU?$char_traits@D@std@@V?$allocator@D@2@@std@@@Z 100f950c f   setup.obj
 0001:000f864c       ?trim@@YAXAAV?$basic_string@DU?$char_traits@D@std@@V?$allocator@D@2@@std@@@Z 100f964c f   setup.obj
 0001:000f86c4       ?HandleInputline@Section_prop@@UAAXABV?$basic_string@DU?$char_traits@D@std@@V?$allocator@D@2@@std@@@Z 100f96c4 f   setup.obj
 0001:000f88ec       ?PrintData@Section_prop@@UBAXPAU_iobuf@@@Z 100f98ec f   setup.obj
 0001:000f8a40       ?GetPropValue@Section_prop@@UBA?AV?$basic_string@DU?$char_traits@D@std@@V?$allocator@D@2@@std@@ABV23@@Z 100f9a40 f   setup.obj
 0001:000f8ba0       ?HandleInputline@Section_line@@UAAXABV?$basic_string@DU?$char_traits@D@std@@V?$allocator@D@2@@std@@@Z 100f9ba0 f   setup.obj
 0001:000f8bd0       ?PrintData@Section_line@@UBAXPAU_iobuf@@@Z 100f9bd0 f   setup.obj
 0001:000f8c10       ?GetPropValue@Section_line@@UBA?AV?$basic_string@DU?$char_traits@D@std@@V?$allocator@D@2@@std@@ABV23@@Z 100f9c10 f   setup.obj
 0001:000f8c54       ?PrintConfig@Config@@QBA_NQBD@Z 100f9c54 f   setup.obj
 0001:000f92d4       ?AddSection_prop@Config@@QAAPAVSection_prop@@QBDP6AXPAVSection@@@Z_N@Z 100fa2d4 f   setup.obj
 0001:000f93b4       ??1Section_prop@@UAA@XZ    100fa3b4 f   setup.obj
 0001:000f94f8       ?AddSection_line@Config@@QAAPAVSection_line@@QBDP6AXPAVSection@@@Z@Z 100fa4f8 f   setup.obj
 0001:000f95d4       ?Init@Config@@QAAXXZ       100fa5d4 f   setup.obj
 0001:000f96d4       ?AddInitFunction@Section@@QAAXP6AXPAV1@@Z_N@Z 100fa6d4 f   setup.obj
 0001:000f9710       ?AddDestroyFunction@Section@@QAAXP6AXPAV1@@Z_N@Z 100fa710 f   setup.obj
 0001:000f974c       ?ExecuteInit@Section@@QAAX_N@Z 100fa74c f   setup.obj
 0001:000f983c       ?ExecuteDestroy@Section@@QAAX_N@Z 100fa83c f   setup.obj
 0001:000f9990       ??1Config@@QAA@XZ          100fa990 f   setup.obj
 0001:000f9a9c       ?GetSection@Config@@QAAPAVSection@@H@Z 100faa9c f   setup.obj
 0001:000f9b94       ?GetSection@Config@@QBAPAVSection@@ABV?$basic_string@DU?$char_traits@D@std@@V?$allocator@D@2@@std@@@Z 100fab94 f   setup.obj
 0001:000f9cb4       ?GetSectionFromProperty@Config@@QBAPAVSection@@QBD@Z 100facb4 f   setup.obj
 0001:000f9e50       ?ParseConfigFile@Config@@QAA_NQBD@Z 100fae50 f   setup.obj
 0001:000fa14c       ?ParseEnv@Config@@QAAXPAPAD@Z 100fb14c f   setup.obj
 0001:000fa2ec       ?SetStartUp@Config@@QAAXP6AXXZ@Z 100fb2ec f   setup.obj
 0001:000fa308       ?StartUp@Config@@QAAXXZ    100fb308 f   setup.obj
 0001:000fa324       ?FindExist@CommandLine@@QAA_NQBD_N@Z 100fb324 f   setup.obj
 0001:000fa3f8       ?FindHex@CommandLine@@QAA_NQBDAAH_N@Z 100fb3f8 f   setup.obj
 0001:000fa594       ?FindInt@CommandLine@@QAA_NQBDAAH_N@Z 100fb594 f   setup.obj
 0001:000fa734       ?FindString@CommandLine@@QAA_NQBDAAV?$basic_string@DU?$char_traits@D@std@@V?$allocator@D@2@@std@@_N@Z 100fb734 f   setup.obj
 0001:000fa8b8       ?FindCommand@CommandLine@@QAA_NIAAV?$basic_string@DU?$char_traits@D@std@@V?$allocator@D@2@@std@@@Z 100fb8b8 f   setup.obj
 0001:000fa98c       ?FindEntry@CommandLine@@AAA_NQBDAAV?$_List_iterator@V?$_List_val@U?$_List_simple_types@V?$basic_string@DU?$char_traits@D@std@@V?$allocator@D@2@@std@@@std@@@std@@@std@@_N@Z 100fb98c f   setup.obj
 0001:000faba8       ?FindStringBegin@CommandLine@@QAA_NQBDAAV?$basic_string@DU?$char_traits@D@std@@V?$allocator@D@2@@std@@_N@Z 100fbba8 f   setup.obj
 0001:000fad3c       ?FindStringRemain@CommandLine@@QAA_NQBDAAV?$basic_string@DU?$char_traits@D@std@@V?$allocator@D@2@@std@@@Z 100fbd3c f   setup.obj
 0001:000fae88       ?GetStringRemain@CommandLine@@QAA_NAAV?$basic_string@DU?$char_traits@D@std@@V?$allocator@D@2@@std@@@Z 100fbe88 f   setup.obj
 0001:000fafd0       ?GetCount@CommandLine@@QAAIXZ 100fbfd0 f   setup.obj
 0001:000faffc       ??0CommandLine@@QAA@HQBQBD@Z 100fbffc f   setup.obj
 0001:000fb0c0       ?Get_arglength@CommandLine@@QAAGXZ 100fc0c0 f   setup.obj
 0001:000fb1c8       ??0CommandLine@@QAA@QBD0@Z 100fc1c8 f   setup.obj
 0001:000fb340       ?Shift@CommandLine@@QAAXI@Z 100fc340 f   setup.obj
 0001:000fcc78       ??8Hex@@QAA_NABV0@@Z       100fdc78 f i setup.obj
 0001:000fccc8       ??$?8DU?$char_traits@D@std@@V?$allocator@D@1@@std@@YA_NABV?$basic_string@DU?$char_traits@D@std@@V?$allocator@D@2@@0@0@Z 100fdcc8 f i setup.obj
 0001:000fcd24       ??0Hex@@QAA@H@Z            100fdd24 f i setup.obj
 0001:000fcd58       ??$?5DU?$char_traits@D@std@@V?$allocator@D@1@@std@@YAAAV?$basic_istream@DU?$char_traits@D@std@@@0@AAV10@AAV?$basic_string@DU?$char_traits@D@std@@V?$allocator@D@2@@0@@Z 100fdd58 f i setup.obj
 0001:000fcda0       ?assign@?$basic_string@DU?$char_traits@D@std@@V?$allocator@D@2@@std@@QAAAAV12@ABV12@@Z 100fdda0 f i setup.obj
 0001:000fcde8       ??0?$basic_ostringstream@DU?$char_traits@D@std@@V?$allocator@D@2@@std@@QAA@H@Z 100fdde8 f i setup.obj
 0001:000fcf14       ??BHex@@QBAHXZ             100fdf14 f i setup.obj
 0001:000fcf44       ?boolalpha@std@@YAAAVios_base@1@AAV21@@Z 100fdf44 f i setup.obj
 0001:000fcf88       ??$?6DU?$char_traits@D@std@@V?$allocator@D@1@@std@@YAAAV?$basic_ostream@DU?$char_traits@D@std@@@0@AAV10@ABV?$basic_string@DU?$char_traits@D@std@@V?$allocator@D@2@@0@@Z 100fdf88 f i setup.obj
 0001:000fd3b8       ?fixed@std@@YAAAVios_base@1@AAV21@@Z 100fe3b8 f i setup.obj
 0001:000fd400       ?str@?$basic_ostringstream@DU?$char_traits@D@std@@V?$allocator@D@2@@std@@QBA?AV?$basic_string@DU?$char_traits@D@std@@V?$allocator@D@2@@2@XZ 100fe400 f i setup.obj
 0001:000fd450       ??_D?$basic_ostringstream@DU?$char_traits@D@std@@V?$allocator@D@2@@std@@QAAXXZ 100fe450 f i setup.obj
 0001:000fd488       ?empty@?$vector@VValue@@V?$allocator@VValue@@@std@@@std@@QBA_NXZ 100fe488 f i setup.obj
 0001:000fd4e0       ?begin@?$vector@VValue@@V?$allocator@VValue@@@std@@@std@@QAA?AV?$_Vector_iterator@V?$_Vector_val@U?$_Simple_types@VValue@@@std@@@std@@@2@XZ 100fe4e0 f i setup.obj
 0001:000fd520       ??E?$_Vector_iterator@V?$_Vector_val@U?$_Simple_types@VValue@@@std@@@std@@@std@@QAA?AV01@H@Z 100fe520 f i setup.obj
 0001:000fd5c8       ??1?$_Vector_iterator@V?$_Vector_val@U?$_Simple_types@VValue@@@std@@@std@@@std@@QAA@XZ 100fe5c8 f i setup.obj
 0001:000fd5e8       ?end@?$vector@VValue@@V?$allocator@VValue@@@std@@@std@@QAA?AV?$_Vector_iterator@V?$_Vector_val@U?$_Simple_types@VValue@@@std@@@std@@@2@XZ 100fe5e8 f i setup.obj
 0001:000fd628       ??9?$_Vector_const_iterator@V?$_Vector_val@U?$_Simple_types@VValue@@@std@@@std@@@std@@QBA_NABV01@@Z 100fe628 f i setup.obj
 0001:000fd688       ??D?$_Vector_iterator@V?$_Vector_val@U?$_Simple_types@VValue@@@std@@@std@@@std@@QBAAAVValue@@XZ 100fe688 f i setup.obj
 0001:000fd6c0       ??$?HDU?$char_traits@D@std@@V?$allocator@D@1@@std@@YA?AV?$basic_string@DU?$char_traits@D@std@@V?$allocator@D@2@@0@$$QAV10@ABV10@@Z 100fe6c0 f i setup.obj
 0001:000fd724       ??0Value@@QAA@ABV?$basic_string@DU?$char_traits@D@std@@V?$allocator@D@2@@std@@W4Etype@0@@Z 100fe724 f i setup.obj
 0001:000fd780       ?SetVal@Property@@QAAXABVValue@@_N1@Z 100fe780 f i setup.obj
 0001:000fd7fc       ?empty@?$basic_string@DU?$char_traits@D@std@@V?$allocator@D@2@@std@@QBA_NXZ 100fe7fc f i setup.obj
 0001:000fd84c       ??4?$basic_string@DU?$char_traits@D@std@@V?$allocator@D@2@@std@@QAAAAV01@ABV01@@Z 100fe84c f i setup.obj
 0001:000fd8f0       ??$?HDU?$char_traits@D@std@@V?$allocator@D@1@@std@@YA?AV?$basic_string@DU?$char_traits@D@std@@V?$allocator@D@2@@0@ABV10@D@Z 100fe8f0 f i setup.obj
 0001:000fd9cc       ??4?$basic_string@DU?$char_traits@D@std@@V?$allocator@D@2@@std@@QAAAAV01@$$QAV01@@Z 100fe9cc f i setup.obj
 0001:000fdaec       ?Get_Default_Value@Property@@QBAABVValue@@XZ 100feaec f i setup.obj
 0001:000fdb1c       ??Y?$basic_string@DU?$char_traits@D@std@@V?$allocator@D@2@@std@@QAAAAV01@ABV01@@Z 100feb1c f i setup.obj
 0001:000fdb58       ?find_first_not_of@?$basic_string@DU?$char_traits@D@std@@V?$allocator@D@2@@std@@QBAIABV12@I@Z 100feb58 f i setup.obj
 0001:000fdbb0       ?find_first_of@?$basic_string@DU?$char_traits@D@std@@V?$allocator@D@2@@std@@QBAIABV12@I@Z 100febb0 f i setup.obj
 0001:000fdc08       ?substr@?$basic_string@DU?$char_traits@D@std@@V?$allocator@D@2@@std@@QBA?AV12@II@Z 100fec08 f i setup.obj
 0001:000fdc6c       ?Get_type@Property@@QAA?AW4Etype@Value@@XZ 100fec6c f i setup.obj
 0001:000fdca0       ??0?$vector@VValue@@V?$allocator@VValue@@@std@@@std@@QAA@ABV01@@Z 100feca0 f i setup.obj
 0001:000fddac       ??1?$vector@VValue@@V?$allocator@VValue@@@std@@@std@@QAA@XZ 100fedac f i setup.obj
 0001:000fddd4       ?push_back@?$vector@VValue@@V?$allocator@VValue@@@std@@@std@@QAAXABVValue@@@Z 100fedd4 f i setup.obj
 0001:000fdf28       ??0Prop_int@@QAA@ABV?$basic_string@DU?$char_traits@D@std@@V?$allocator@D@2@@std@@W4Value@Changeable@Property@@H@Z 100fef28 f i setup.obj
 0001:000fe014       ?push_back@?$list@PAVProperty@@V?$allocator@PAVProperty@@@std@@@std@@QAAXABQAVProperty@@@Z 100ff014 f i setup.obj
 0001:000fe064       ??0Prop_string@@QAA@ABV?$basic_string@DU?$char_traits@D@std@@V?$allocator@D@2@@std@@W4Value@Changeable@Property@@QBD@Z 100ff064 f i setup.obj
 0001:000fe0ec       ??0Prop_path@@QAA@ABV?$basic_string@DU?$char_traits@D@std@@V?$allocator@D@2@@std@@W4Value@Changeable@Property@@QBD@Z 100ff0ec f i setup.obj
 0001:000fe1a8       ??0Prop_bool@@QAA@ABV?$basic_string@DU?$char_traits@D@std@@V?$allocator@D@2@@std@@W4Value@Changeable@Property@@_N@Z 100ff1a8 f i setup.obj
 0001:000fe234       ??0Prop_hex@@QAA@ABV?$basic_string@DU?$char_traits@D@std@@V?$allocator@D@2@@std@@W4Value@Changeable@Property@@VHex@@@Z 100ff234 f i setup.obj
 0001:000fe2bc       ??0Prop_multival@@QAA@ABV?$basic_string@DU?$char_traits@D@std@@V?$allocator@D@2@@std@@W4Value@Changeable@Property@@0@Z 100ff2bc f i setup.obj
 0001:000fe420       ??0Prop_multival_remain@@QAA@ABV?$basic_string@DU?$char_traits@D@std@@V?$allocator@D@2@@std@@W4Value@Changeable@Property@@0@Z 100ff420 f i setup.obj
 0001:000fe46c       ?begin@?$list@PAVProperty@@V?$allocator@PAVProperty@@@std@@@std@@QBA?AV?$_List_const_iterator@V?$_List_val@U?$_List_simple_types@PAVProperty@@@std@@@std@@@2@XZ 100ff46c f i setup.obj
 0001:000fe4b8       ??E?$_List_const_iterator@V?$_List_val@U?$_List_simple_types@PAVProperty@@@std@@@std@@@std@@QAA?AV01@H@Z 100ff4b8 f i setup.obj
 0001:000fe560       ??1?$_List_const_iterator@V?$_List_val@U?$_List_simple_types@PAVProperty@@@std@@@std@@@std@@QAA@XZ 100ff560 f i setup.obj
 0001:000fe580       ?end@?$list@PAVProperty@@V?$allocator@PAVProperty@@@std@@@std@@QBA?AV?$_List_const_iterator@V?$_List_val@U?$_List_simple_types@PAVProperty@@@std@@@std@@@2@XZ 100ff580 f i setup.obj
 0001:000fe5c0       ??9?$_List_const_iterator@V?$_List_val@U?$_List_simple_types@PAVProperty@@@std@@@std@@@std@@QBA_NABV01@@Z 100ff5c0 f i setup.obj
 0001:000fe620       ??D?$_List_const_iterator@V?$_List_val@U?$_List_simple_types@PAVProperty@@@std@@@std@@@std@@QBAABQAVProperty@@XZ 100ff620 f i setup.obj
 0001:000fe71c       ?GetValue@Property@@QBAABVValue@@XZ 100ff71c f i setup.obj
 0001:000fe74c       ?begin@?$list@PAVProperty@@V?$allocator@PAVProperty@@@std@@@std@@QAA?AV?$_List_iterator@V?$_List_val@U?$_List_simple_types@PAVProperty@@@std@@@std@@@2@XZ 100ff74c f i setup.obj
 0001:000fe798       ??E?$_List_iterator@V?$_List_val@U?$_List_simple_types@PAVProperty@@@std@@@std@@@std@@QAA?AV01@H@Z 100ff798 f i setup.obj
 0001:000fe840       ??1?$_List_iterator@V?$_List_val@U?$_List_simple_types@PAVProperty@@@std@@@std@@@std@@QAA@XZ 100ff840 f i setup.obj
 0001:000fe860       ?end@?$list@PAVProperty@@V?$allocator@PAVProperty@@@std@@@std@@QAA?AV?$_List_iterator@V?$_List_val@U?$_List_simple_types@PAVProperty@@@std@@@std@@@2@XZ 100ff860 f i setup.obj
 0001:000fe8a0       ??D?$_List_iterator@V?$_List_val@U?$_List_simple_types@PAVProperty@@@std@@@std@@@std@@QBAAAPAVProperty@@XZ 100ff8a0 f i setup.obj
 0001:000fe8d8       ?find_first_not_of@?$basic_string@DU?$char_traits@D@std@@V?$allocator@D@2@@std@@QBAIPBDI@Z 100ff8d8 f i setup.obj
 0001:000fe93c       ?find_last_not_of@?$basic_string@DU?$char_traits@D@std@@V?$allocator@D@2@@std@@QBAIPBDI@Z 100ff93c f i setup.obj
 0001:000fe9a0       ?begin@?$list@PAVSection@@V?$allocator@PAVSection@@@std@@@std@@QBA?AV?$_List_const_iterator@V?$_List_val@U?$_List_simple_types@PAVSection@@@std@@@std@@@2@XZ 100ff9a0 f i setup.obj
 0001:000fe9ec       ??E?$_List_const_iterator@V?$_List_val@U?$_List_simple_types@PAVSection@@@std@@@std@@@std@@QAA?AV01@H@Z 100ff9ec f i setup.obj
 0001:000fea94       ??1?$_List_const_iterator@V?$_List_val@U?$_List_simple_types@PAVSection@@@std@@@std@@@std@@QAA@XZ 100ffa94 f i setup.obj
 0001:000feab4       ?end@?$list@PAVSection@@V?$allocator@PAVSection@@@std@@@std@@QBA?AV?$_List_const_iterator@V?$_List_val@U?$_List_simple_types@PAVSection@@@std@@@std@@@2@XZ 100ffab4 f i setup.obj
 0001:000feaf4       ??9?$_List_const_iterator@V?$_List_val@U?$_List_simple_types@PAVSection@@@std@@@std@@@std@@QBA_NABV01@@Z 100ffaf4 f i setup.obj
 0001:000feb54       ??D?$_List_const_iterator@V?$_List_val@U?$_List_simple_types@PAVSection@@@std@@@std@@@std@@QBAABQAVSection@@XZ 100ffb54 f i setup.obj
 0001:000fec50       ?GetName@Section@@QBAPBDXZ 100ffc50 f i setup.obj
 0001:000fec8c       ?find@?$basic_string@DU?$char_traits@D@std@@V?$allocator@D@2@@std@@QBAIPBDI@Z 100ffc8c f i setup.obj
 0001:000fecf0       ?replace@?$basic_string@DU?$char_traits@D@std@@V?$allocator@D@2@@std@@QAAAAV12@IIPBD@Z 100ffcf0 f i setup.obj
 0001:000fed5c       ??$?9DU?$char_traits@D@std@@V?$allocator@D@1@@std@@YA_NABV?$basic_string@DU?$char_traits@D@std@@V?$allocator@D@2@@0@PBD@Z 100ffd5c f i setup.obj
 0001:000fedbc       ??E?$_Vector_iterator@V?$_Vector_val@U?$_Simple_types@VValue@@@std@@@std@@@std@@QAAAAV01@XZ 100ffdbc f i setup.obj
 0001:000fedf0       ??0Section_prop@@QAA@ABV?$basic_string@DU?$char_traits@D@std@@V?$allocator@D@2@@std@@@Z 100ffdf0 f i setup.obj
 0001:000fee64       ?push_back@?$list@PAVSection@@V?$allocator@PAVSection@@@std@@@std@@QAAXABQAVSection@@@Z 100ffe64 f i setup.obj
 0001:000feeb4       ??_ESection_prop@@UAAPAXI@Z 100ffeb4 f i setup.obj
 0001:000feeb4       ??_GSection_prop@@UAAPAXI@Z 100ffeb4 f i setup.obj
 0001:000feefc       ??1?$list@PAVProperty@@V?$allocator@PAVProperty@@@std@@@std@@QAA@XZ 100ffefc f i setup.obj
 0001:000fef24       ??1Section@@UAA@XZ         100fff24 f i setup.obj
 0001:000fef6c       ??0Section_line@@QAA@ABV?$basic_string@DU?$char_traits@D@std@@V?$allocator@D@2@@std@@@Z 100fff6c f i setup.obj
 0001:000fefe0       ?begin@?$list@PAVSection@@V?$allocator@PAVSection@@@std@@@std@@QAA?AV?$_List_iterator@V?$_List_val@U?$_List_simple_types@PAVSection@@@std@@@std@@@2@XZ 100fffe0 f i setup.obj
 0001:000ff02c       ??0?$_List_const_iterator@V?$_List_val@U?$_List_simple_types@PAVSection@@@std@@@std@@@std@@QAA@ABV01@@Z 1010002c f i setup.obj
 0001:000ff068       ??1?$_List_iterator@V?$_List_val@U?$_List_simple_types@PAVSection@@@std@@@std@@@std@@QAA@XZ 10100068 f i setup.obj
 0001:000ff088       ?end@?$list@PAVSection@@V?$allocator@PAVSection@@@std@@@std@@QAA?AV?$_List_iterator@V?$_List_val@U?$_List_simple_types@PAVSection@@@std@@@std@@@2@XZ 10100088 f i setup.obj
 0001:000ff0c8       ??0Function_wrapper@Section@@QAA@Q6AXPAV1@@Z_N@Z 101000c8 f i setup.obj
 0001:000ff10c       ?push_back@?$list@UFunction_wrapper@Section@@V?$allocator@UFunction_wrapper@Section@@@std@@@std@@QAAX$$QAUFunction_wrapper@Section@@@Z 1010010c f i setup.obj
 0001:000ff168       ?push_front@?$list@UFunction_wrapper@Section@@V?$allocator@UFunction_wrapper@Section@@@std@@@std@@QAAX$$QAUFunction_wrapper@Section@@@Z 10100168 f i setup.obj
 0001:000ff1c4       ?begin@?$list@UFunction_wrapper@Section@@V?$allocator@UFunction_wrapper@Section@@@std@@@std@@QAA?AV?$_List_iterator@V?$_List_val@U?$_List_simple_types@UFunction_wrapper@Section@@@std@@@std@@@2@XZ 101001c4 f i setup.obj
 0001:000ff210       ??E?$_List_iterator@V?$_List_val@U?$_List_simple_types@UFunction_wrapper@Section@@@std@@@std@@@std@@QAA?AV01@H@Z 10100210 f i setup.obj
 0001:000ff2b8       ??1?$_List_iterator@V?$_List_val@U?$_List_simple_types@UFunction_wrapper@Section@@@std@@@std@@@std@@QAA@XZ 101002b8 f i setup.obj
 0001:000ff2d8       ?end@?$list@UFunction_wrapper@Section@@V?$allocator@UFunction_wrapper@Section@@@std@@@std@@QAA?AV?$_List_iterator@V?$_List_val@U?$_List_simple_types@UFunction_wrapper@Section@@@std@@@std@@@2@XZ 101002d8 f i setup.obj
 0001:000ff318       ??9?$_List_const_iterator@V?$_List_val@U?$_List_simple_types@UFunction_wrapper@Section@@@std@@@std@@@std@@QBA_NABV01@@Z 10100318 f i setup.obj
 0001:000ff378       ??D?$_List_iterator@V?$_List_val@U?$_List_simple_types@UFunction_wrapper@Section@@@std@@@std@@@std@@QBAAAUFunction_wrapper@Section@@XZ 10100378 f i setup.obj
 0001:000ff3b0       ??0?$_List_const_iterator@V?$_List_val@U?$_List_simple_types@UFunction_wrapper@Section@@@std@@@std@@@std@@QAA@ABV01@@Z 101003b0 f i setup.obj
 0001:000ff3ec       ?erase@?$list@UFunction_wrapper@Section@@V?$allocator@UFunction_wrapper@Section@@@std@@@std@@QAA?AV?$_List_iterator@V?$_List_val@U?$_List_simple_types@UFunction_wrapper@Section@@@std@@@std@@@2@V?$_List_const_iterator@V?$_List_val@U?$_List_simple_types@UFunction_wrapper@Section@@@std@@@std@@@2@@Z 101003ec f i setup.obj
 0001:000ff5b8       ??4?$_List_iterator@V?$_List_val@U?$_List_simple_types@UFunction_wrapper@Section@@@std@@@std@@@std@@QAAAAV01@ABV01@@Z 101005b8 f i setup.obj
 0001:000ff5f0       ?rbegin@?$list@PAVSection@@V?$allocator@PAVSection@@@std@@@std@@QAA?AV?$reverse_iterator@V?$_List_iterator@V?$_List_val@U?$_List_simple_types@PAVSection@@@std@@@std@@@std@@@2@XZ 101005f0 f i setup.obj
 0001:000ff65c       ?rend@?$list@PAVSection@@V?$allocator@PAVSection@@@std@@@std@@QAA?AV?$reverse_iterator@V?$_List_iterator@V?$_List_val@U?$_List_simple_types@PAVSection@@@std@@@std@@@std@@@2@XZ 1010065c f i setup.obj
 0001:000ff6c8       ??$?9V?$_List_iterator@V?$_List_val@U?$_List_simple_types@PAVSection@@@std@@@std@@@std@@V01@@std@@YA_NABV?$reverse_iterator@V?$_List_iterator@V?$_List_val@U?$_List_simple_types@PAVSection@@@std@@@std@@@std@@@0@0@Z 101006c8 f i setup.obj
 0001:000ff728       ??1?$reverse_iterator@V?$_List_iterator@V?$_List_val@U?$_List_simple_types@PAVSection@@@std@@@std@@@std@@@std@@QAA@XZ 10100728 f i setup.obj
 0001:000ff748       ??D?$_Revranit@V?$_List_iterator@V?$_List_val@U?$_List_simple_types@PAVSection@@@std@@@std@@@std@@U?$iterator@Ubidirectional_iterator_tag@std@@PAVSection@@HPAPAV3@AAPAV3@@2@@std@@QBAAAPAVSection@@XZ 10100748 f i setup.obj
 0001:000ff7e4       ??E?$reverse_iterator@V?$_List_iterator@V?$_List_val@U?$_List_simple_types@PAVSection@@@std@@@std@@@std@@@std@@QAA?AV01@H@Z 101007e4 f i setup.obj
 0001:000ff88c       ??1?$list@PAVSection@@V?$allocator@PAVSection@@@std@@@std@@QAA@XZ 1010088c f i setup.obj
 0001:000ff8b4       ??E?$_List_iterator@V?$_List_val@U?$_List_simple_types@PAVSection@@@std@@@std@@@std@@QAA?AV01@H@Z 101008b4 f i setup.obj
 0001:000ff95c       ??D?$_List_iterator@V?$_List_val@U?$_List_simple_types@PAVSection@@@std@@@std@@@std@@QBAAAPAVSection@@XZ 1010095c f i setup.obj
 0001:000ff994       ??0?$basic_ifstream@DU?$char_traits@D@std@@@std@@QAA@PBDHH@Z 10100994 f i setup.obj
 0001:000ffb10       ??_D?$basic_ifstream@DU?$char_traits@D@std@@@std@@QAAXXZ 10100b10 f i setup.obj
 0001:000ffb48       ?rfind@?$basic_string@DU?$char_traits@D@std@@V?$allocator@D@2@@std@@QBAIDI@Z 10100b48 f i setup.obj
 0001:000ffb88       ??$getline@DU?$char_traits@D@std@@V?$allocator@D@2@@std@@YAAAV?$basic_istream@DU?$char_traits@D@std@@@0@AAV10@AAV?$basic_string@DU?$char_traits@D@std@@V?$allocator@D@2@@0@@Z 10100b88 f i setup.obj
 0001:000ffbfc       ?clear@?$basic_string@DU?$char_traits@D@std@@V?$allocator@D@2@@std@@QAAXXZ 10100bfc f i setup.obj
 0001:000ffc1c       ?strrchr@@YAPADPADH@Z      10100c1c f i setup.obj
 0001:000ffc60       ??0?$_List_iterator@V?$_List_val@U?$_List_simple_types@V?$basic_string@DU?$char_traits@D@std@@V?$allocator@D@2@@std@@@std@@@std@@@std@@QAA@XZ 10100c60 f i setup.obj
 0001:000ffc98       ??1?$_List_iterator@V?$_List_val@U?$_List_simple_types@V?$basic_string@DU?$char_traits@D@std@@V?$allocator@D@2@@std@@@std@@@std@@@std@@QAA@XZ 10100c98 f i setup.obj
 0001:000ffcb8       ??0?$_List_const_iterator@V?$_List_val@U?$_List_simple_types@V?$basic_string@DU?$char_traits@D@std@@V?$allocator@D@2@@std@@@std@@@std@@@std@@QAA@ABV01@@Z 10100cb8 f i setup.obj
 0001:000ffcf4       ?erase@?$list@V?$basic_string@DU?$char_traits@D@std@@V?$allocator@D@2@@std@@V?$allocator@V?$basic_string@DU?$char_traits@D@std@@V?$allocator@D@2@@std@@@2@@std@@QAA?AV?$_List_iterator@V?$_List_val@U?$_List_simple_types@V?$basic_string@DU?$char_traits@D@std@@V?$allocator@D@2@@std@@@std@@@std@@@2@V?$_List_const_iterator@V?$_List_val@U?$_List_simple_types@V?$basic_string@DU?$char_traits@D@std@@V?$allocator@D@2@@std@@@std@@@std@@@2@@Z 10100cf4 f i setup.obj
 0001:000ffec0       ??4?$_List_iterator@V?$_List_val@U?$_List_simple_types@V?$basic_string@DU?$char_traits@D@std@@V?$allocator@D@2@@std@@@std@@@std@@@std@@QAAAAV01@ABV01@@Z 10100ec0 f i setup.obj
 0001:000ffef8       ??E?$_List_iterator@V?$_List_val@U?$_List_simple_types@V?$basic_string@DU?$char_traits@D@std@@V?$allocator@D@2@@std@@@std@@@std@@@std@@QAA?AV01@H@Z 10100ef8 f i setup.obj
 0001:000fffa0       ??D?$_List_iterator@V?$_List_val@U?$_List_simple_types@V?$basic_string@DU?$char_traits@D@std@@V?$allocator@D@2@@std@@@std@@@std@@@std@@QBAAAV?$basic_string@DU?$char_traits@D@std@@V?$allocator@D@2@@1@XZ 10100fa0 f i setup.obj
 0001:00108324       ??E?$_List_iterator@V?$_List_val@U?$_List_simple_types@V?$basic_string@DU?$char_traits@D@std@@V?$allocator@D@2@@std@@@std@@@std@@@std@@QAAAAV01@XZ 10109324 f i setup.obj
 0001:00108358       ?erase@?$list@V?$basic_string@DU?$char_traits@D@std@@V?$allocator@D@2@@std@@V?$allocator@V?$basic_string@DU?$char_traits@D@std@@V?$allocator@D@2@@std@@@2@@std@@QAA?AV?$_List_iterator@V?$_List_val@U?$_List_simple_types@V?$basic_string@DU?$char_traits@D@std@@V?$allocator@D@2@@std@@@std@@@std@@@2@V?$_List_const_iterator@V?$_List_val@U?$_List_simple_types@V?$basic_string@DU?$char_traits@D@std@@V?$allocator@D@2@@std@@@std@@@std@@@2@0@Z 10109358 f i setup.obj
 0001:00108628       ??1?$_List_const_iterator@V?$_List_val@U?$_List_simple_types@V?$basic_string@DU?$char_traits@D@std@@V?$allocator@D@2@@std@@@std@@@std@@@std@@QAA@XZ 10109628 f i setup.obj
 0001:00108648       ?size@?$list@V?$basic_string@DU?$char_traits@D@std@@V?$allocator@D@2@@std@@V?$allocator@V?$basic_string@DU?$char_traits@D@std@@V?$allocator@D@2@@std@@@2@@std@@QBAIXZ 10109648 f i setup.obj
 0001:0010867c       ?begin@?$list@V?$basic_string@DU?$char_traits@D@std@@V?$allocator@D@2@@std@@V?$allocator@V?$basic_string@DU?$char_traits@D@std@@V?$allocator@D@2@@std@@@2@@std@@QAA?AV?$_List_iterator@V?$_List_val@U?$_List_simple_types@V?$basic_string@DU?$char_traits@D@std@@V?$allocator@D@2@@std@@@std@@@std@@@2@XZ 1010967c f i setup.obj
 0001:001086c8       ?end@?$list@V?$basic_string@DU?$char_traits@D@std@@V?$allocator@D@2@@std@@V?$allocator@V?$basic_string@DU?$char_traits@D@std@@V?$allocator@D@2@@std@@@2@@std@@QAA?AV?$_List_iterator@V?$_List_val@U?$_List_simple_types@V?$basic_string@DU?$char_traits@D@std@@V?$allocator@D@2@@std@@@std@@@std@@@2@XZ 101096c8 f i setup.obj
 0001:00108708       ??9?$_List_const_iterator@V?$_List_val@U?$_List_simple_types@V?$basic_string@DU?$char_traits@D@std@@V?$allocator@D@2@@std@@@std@@@std@@@std@@QBA_NABV01@@Z 10109708 f i setup.obj
 0001:00108768       ??0?$_List_iterator@V?$_List_val@U?$_List_simple_types@V?$basic_string@DU?$char_traits@D@std@@V?$allocator@D@2@@std@@@std@@@std@@@std@@QAA@ABV01@@Z 10109768 f i setup.obj
 0001:001087a4       ??8?$_List_const_iterator@V?$_List_val@U?$_List_simple_types@V?$basic_string@DU?$char_traits@D@std@@V?$allocator@D@2@@std@@@std@@@std@@@std@@QBA_NABV01@@Z 101097a4 f i setup.obj
 0001:001088b4       ??0?$list@V?$basic_string@DU?$char_traits@D@std@@V?$allocator@D@2@@std@@V?$allocator@V?$basic_string@DU?$char_traits@D@std@@V?$allocator@D@2@@std@@@2@@std@@QAA@XZ 101098b4 f i setup.obj
 0001:001088fc       ?push_back@?$list@V?$basic_string@DU?$char_traits@D@std@@V?$allocator@D@2@@std@@V?$allocator@V?$basic_string@DU?$char_traits@D@std@@V?$allocator@D@2@@std@@@2@@std@@QAAX$$QAV?$basic_string@DU?$char_traits@D@std@@V?$allocator@D@2@@2@@Z 101098fc f i setup.obj
 0001:00108958       ?empty@?$list@V?$basic_string@DU?$char_traits@D@std@@V?$allocator@D@2@@std@@V?$allocator@V?$basic_string@DU?$char_traits@D@std@@V?$allocator@D@2@@std@@@2@@std@@QBA_NXZ 10109958 f i setup.obj
 0001:001089a8       ?push_back@?$list@V?$basic_string@DU?$char_traits@D@std@@V?$allocator@D@2@@std@@V?$allocator@V?$basic_string@DU?$char_traits@D@std@@V?$allocator@D@2@@std@@@2@@std@@QAAXABV?$basic_string@DU?$char_traits@D@std@@V?$allocator@D@2@@2@@Z 101099a8 f i setup.obj
 0001:001089f8       ?compare@?$basic_string@DU?$char_traits@D@std@@V?$allocator@D@2@@std@@QBAHABV12@@Z 101099f8 f i setup.obj
 0001:00108a5c       ??$move@AAV?$basic_istream@DU?$char_traits@D@std@@@std@@@std@@YA$$QAV?$basic_istream@DU?$char_traits@D@std@@@0@AAV10@@Z 10109a5c f i setup.obj
 0001:00108a8c       ??$?5DU?$char_traits@D@std@@V?$allocator@D@1@@std@@YAAAV?$basic_istream@DU?$char_traits@D@std@@@0@$$QAV10@AAV?$basic_string@DU?$char_traits@D@std@@V?$allocator@D@2@@0@@Z 10109a8c f i setup.obj
 0001:00108e34       ??_E?$basic_ostringstream@DU?$char_traits@D@std@@V?$allocator@D@2@@std@@$4PPPPPPPM@A@AAPAXI@Z 10109e34 f i setup.obj
 0001:00108e50       ?_Add_vtordisp2@?$basic_ostream@DU?$char_traits@D@std@@@std@@$4PPPPPPPM@EI@AAXXZ 10109e50 f i setup.obj
 0001:00108e70       ??0?$basic_stringbuf@DU?$char_traits@D@std@@V?$allocator@D@2@@std@@QAA@H@Z 10109e70 f i setup.obj
 0001:00108f0c       ??0sentry@?$basic_ostream@DU?$char_traits@D@std@@@std@@QAA@AAV12@@Z 10109f0c f i setup.obj
 0001:00109004       ??Bsentry@?$basic_ostream@DU?$char_traits@D@std@@@std@@QBAPQ?$_Bool_struct@V?$basic_ostream@DU?$char_traits@D@std@@@std@@@2@HXZ 1010a004 f i setup.obj
 0001:0010904c       ??1sentry@?$basic_ostream@DU?$char_traits@D@std@@@std@@QAA@XZ 1010a04c f i setup.obj
 0001:001090a8       ?str@?$basic_stringbuf@DU?$char_traits@D@std@@V?$allocator@D@2@@std@@QBA?AV?$basic_string@DU?$char_traits@D@std@@V?$allocator@D@2@@2@XZ 1010a0a8 f i setup.obj
 0001:0010927c       ??1?$basic_ostringstream@DU?$char_traits@D@std@@V?$allocator@D@2@@std@@UAA@XZ 1010a27c f i setup.obj
 0001:00109308       ??0?$_Vector_iterator@V?$_Vector_val@U?$_Simple_types@VValue@@@std@@@std@@@std@@QAA@PAVValue@@PBU_Container_base12@1@@Z 1010a308 f i setup.obj
 0001:00109344       ??0?$_Vector_iterator@V?$_Vector_val@U?$_Simple_types@VValue@@@std@@@std@@@std@@QAA@ABV01@@Z 1010a344 f i setup.obj
 0001:00109380       ??1?$_Vector_const_iterator@V?$_Vector_val@U?$_Simple_types@VValue@@@std@@@std@@@std@@QAA@XZ 1010a380 f i setup.obj
 0001:001093a0       ??8?$_Vector_const_iterator@V?$_Vector_val@U?$_Simple_types@VValue@@@std@@@std@@@std@@QBA_NABV01@@Z 1010a3a0 f i setup.obj
 0001:00109404       ??D?$_Vector_const_iterator@V?$_Vector_val@U?$_Simple_types@VValue@@@std@@@std@@@std@@QBAABVValue@@XZ 1010a404 f i setup.obj
 0001:00109518       ?append@?$basic_string@DU?$char_traits@D@std@@V?$allocator@D@2@@std@@QAAAAV12@ABV12@@Z 1010a518 f i setup.obj
 0001:00109560       ??$move@AAV?$basic_string@DU?$char_traits@D@std@@V?$allocator@D@2@@std@@@std@@YA$$QAV?$basic_string@DU?$char_traits@D@std@@V?$allocator@D@2@@0@AAV10@@Z 1010a560 f i setup.obj
 0001:00109590       ??0?$basic_string@DU?$char_traits@D@std@@V?$allocator@D@2@@std@@QAA@$$QAV01@@Z 1010a590 f i setup.obj
 0001:001095fc       ??$?9V?$allocator@D@std@@V01@@std@@YA_NABU?$_Wrap_alloc@V?$allocator@D@std@@@0@0@Z 1010a5fc f i setup.obj
 0001:0010965c       ?_Change_alloc@?$_String_alloc@$0A@U?$_String_base_types@DV?$allocator@D@std@@@std@@@std@@QAAXABU?$_Wrap_alloc@V?$allocator@D@std@@@2@@Z 1010a65c f i setup.obj
 0001:00109674       ?reserve@?$basic_string@DU?$char_traits@D@std@@V?$allocator@D@2@@std@@QAAXI@Z 1010a674 f i setup.obj
 0001:001096e8       ?end@?$basic_string@DU?$char_traits@D@std@@V?$allocator@D@2@@std@@QAA?AV?$_String_iterator@V?$_String_val@U?$_Simple_types@D@std@@@std@@@2@XZ 1010a6e8 f i setup.obj
 0001:00109738       ?begin@?$basic_string@DU?$char_traits@D@std@@V?$allocator@D@2@@std@@QAA?AV?$_String_iterator@V?$_String_val@U?$_Simple_types@D@std@@@std@@@2@XZ 1010a738 f i setup.obj
 0001:0010977c       ??$assign@V?$_String_iterator@V?$_String_val@U?$_Simple_types@D@std@@@std@@@std@@@?$basic_string@DU?$char_traits@D@std@@V?$allocator@D@2@@std@@QAAAAV01@V?$_String_iterator@V?$_String_val@U?$_Simple_types@D@std@@@std@@@1@0@Z 1010a77c f i setup.obj
 0001:00109934       ??$forward@V?$basic_string@DU?$char_traits@D@std@@V?$allocator@D@2@@std@@@std@@YA$$QAV?$basic_string@DU?$char_traits@D@std@@V?$allocator@D@2@@0@AAV10@@Z 1010a934 f i setup.obj
 0001:00109964       ?_Assign_rv@?$basic_string@DU?$char_traits@D@std@@V?$allocator@D@2@@std@@QAAX$$QAV12@@Z 1010a964 f i setup.obj
 0001:00109a10       ?find_first_not_of@?$basic_string@DU?$char_traits@D@std@@V?$allocator@D@2@@std@@QBAIPBDII@Z 1010aa10 f i setup.obj
 0001:00109ae8       ?find_first_of@?$basic_string@DU?$char_traits@D@std@@V?$allocator@D@2@@std@@QBAIPBDII@Z 1010aae8 f i setup.obj
 0001:00109bc4       ?get_allocator@?$basic_string@DU?$char_traits@D@std@@V?$allocator@D@2@@std@@QBA?AV?$allocator@D@2@XZ 1010abc4 f i setup.obj
 0001:00109c0c       ??0?$basic_string@DU?$char_traits@D@std@@V?$allocator@D@2@@std@@QAA@ABV01@IIABV?$allocator@D@1@@Z 1010ac0c f i setup.obj
 0001:00109c80       ?_Getal@?$_Vector_alloc@$0A@U?$_Vec_base_types@VValue@@V?$allocator@VValue@@@std@@@std@@@std@@QBA?AU?$_Wrap_alloc@V?$allocator@VValue@@@std@@@2@XZ 1010ac80 f i setup.obj
 0001:00109cb4       ?select_on_container_copy_construction@?$_Wrap_alloc@V?$allocator@VValue@@@std@@@std@@QBA?AU12@XZ 1010acb4 f i setup.obj
 0001:00109cfc       ??0?$_Vector_alloc@$0A@U?$_Vec_base_types@VValue@@V?$allocator@VValue@@@std@@@std@@@std@@QAA@ABV?$allocator@VValue@@@1@@Z 1010acfc f i setup.obj
 0001:00109d58       ?size@?$vector@VValue@@V?$allocator@VValue@@@std@@@std@@QBAIXZ 1010ad58 f i setup.obj
 0001:00109d9c       ?_Buy@?$vector@VValue@@V?$allocator@VValue@@@std@@@std@@IAA_NI@Z 1010ad9c f i setup.obj
 0001:00109e78       ?end@?$vector@VValue@@V?$allocator@VValue@@@std@@@std@@QBA?AV?$_Vector_const_iterator@V?$_Vector_val@U?$_Simple_types@VValue@@@std@@@std@@@2@XZ 1010ae78 f i setup.obj
 0001:00109eb8       ?begin@?$vector@VValue@@V?$allocator@VValue@@@std@@@std@@QBA?AV?$_Vector_const_iterator@V?$_Vector_val@U?$_Simple_types@VValue@@@std@@@std@@@2@XZ 1010aeb8 f i setup.obj
 0001:00109ef8       ??$_Ucopy@V?$_Vector_const_iterator@V?$_Vector_val@U?$_Simple_types@VValue@@@std@@@std@@@std@@@?$vector@VValue@@V?$allocator@VValue@@@std@@@std@@IAAPAVValue@@V?$_Vector_const_iterator@V?$_Vector_val@U?$_Simple_types@VValue@@@std@@@std@@@1@0PAV2@@Z 1010aef8 f i setup.obj
 0001:00109fdc       ?_Tidy@?$vector@VValue@@V?$allocator@VValue@@@std@@@std@@IAAXXZ 1010afdc f i setup.obj
 0001:0010a08c       ??1?$_Vector_alloc@$0A@U?$_Vec_base_types@VValue@@V?$allocator@VValue@@@std@@@std@@@std@@QAA@XZ 1010b08c f i setup.obj
 0001:0010a0b4       ??$addressof@$$CBVValue@@@std@@YAPBVValue@@ABV1@@Z 1010b0b4 f i setup.obj
 0001:0010a0e4       ?_Inside@?$vector@VValue@@V?$allocator@VValue@@@std@@@std@@IBA_NPBVValue@@@Z 1010b0e4 f i setup.obj
 0001:0010a144       ?_Reserve@?$vector@VValue@@V?$allocator@VValue@@@std@@@std@@IAAXI@Z 1010b144 f i setup.obj
 0001:0010a1d4       ?_Orphan_range@?$vector@VValue@@V?$allocator@VValue@@@std@@@std@@IBAXPAVValue@@0@Z 1010b1d4 f i setup.obj
 0001:0010a2d8       ??$construct@VValue@@AAV1@@?$_Wrap_alloc@V?$allocator@VValue@@@std@@@std@@QAAXPAVValue@@AAV2@@Z 1010b2d8 f i setup.obj
 0001:0010a314       ??$construct@VValue@@ABV1@@?$_Wrap_alloc@V?$allocator@VValue@@@std@@@std@@QAAXPAVValue@@ABV2@@Z 1010b314 f i setup.obj
 0001:0010a350       ??0Property@@QAA@ABV?$basic_string@DU?$char_traits@D@std@@V?$allocator@D@2@@std@@W4Value@Changeable@0@@Z 1010b350 f i setup.obj
 0001:0010a420       ??_EProp_int@@UAAPAXI@Z    1010b420 f i setup.obj
 0001:0010a420       ??_GProp_int@@UAAPAXI@Z    1010b420 f i setup.obj
 0001:0010a468       ??0Value@@QAA@XZ           1010b468 f i setup.obj
 0001:0010a4b8       ??4Value@@QAAAAV0@H@Z      1010b4b8 f i setup.obj
 0001:0010a538       ??1Property@@UAA@XZ        1010b538 f i setup.obj
 0001:0010a5e4       ?_Unchecked_end@?$list@PAVProperty@@V?$allocator@PAVProperty@@@std@@@std@@QAA?AV?$_List_unchecked_iterator@V?$_List_val@U?$_List_simple_types@PAVProperty@@@std@@@std@@@2@XZ 1010b5e4 f i setup.obj
 0001:0010a624       ??$_Insert@ABQAVProperty@@@?$list@PAVProperty@@V?$allocator@PAVProperty@@@std@@@std@@QAAXV?$_List_unchecked_const_iterator@V?$_List_val@U?$_List_simple_types@PAVProperty@@@std@@@std@@U_Iterator_base0@2@@1@ABQAVProperty@@@Z 1010b624 f i setup.obj
 0001:0010a6c4       ??_EProp_string@@UAAPAXI@Z 1010b6c4 f i setup.obj
 0001:0010a6c4       ??_GProp_string@@UAAPAXI@Z 1010b6c4 f i setup.obj
 0001:0010a70c       ??4Value@@QAAAAV0@QBD@Z    1010b70c f i setup.obj
 0001:0010a78c       ??_GProp_path@@UAAPAXI@Z   1010b78c f i setup.obj
 0001:0010a78c       ??_EProp_path@@UAAPAXI@Z   1010b78c f i setup.obj
 0001:0010a7d4       ??1Prop_string@@UAA@XZ     1010b7d4 f i setup.obj
 0001:0010a804       ??_GProp_bool@@UAAPAXI@Z   1010b804 f i setup.obj
 0001:0010a804       ??_EProp_bool@@UAAPAXI@Z   1010b804 f i setup.obj
 0001:0010a84c       ??4Value@@QAAAAV0@_N@Z     1010b84c f i setup.obj
 0001:0010a8cc       ??_GProp_hex@@UAAPAXI@Z    1010b8cc f i setup.obj
 0001:0010a8cc       ??_EProp_hex@@UAAPAXI@Z    1010b8cc f i setup.obj
 0001:0010a914       ??4Value@@QAAAAV0@VHex@@@Z 1010b914 f i setup.obj
 0001:0010a994       ??_GProp_multival@@UAAPAXI@Z 1010b994 f i setup.obj
 0001:0010a994       ??_EProp_multival@@UAAPAXI@Z 1010b994 f i setup.obj
 0001:0010a9dc       ??_GProp_multival_remain@@UAAPAXI@Z 1010b9dc f i setup.obj
 0001:0010a9dc       ??_EProp_multival_remain@@UAAPAXI@Z 1010b9dc f i setup.obj
 0001:0010aa24       ?_Nextnode@?$_List_val@U?$_List_simple_types@PAVProperty@@@std@@@std@@SAAAPAU?$_List_node@PAVProperty@@PAX@2@PAU32@@Z 1010ba24 f i setup.obj
 0001:0010aa54       ??0?$_List_const_iterator@V?$_List_val@U?$_List_simple_types@PAVProperty@@@std@@@std@@@std@@QAA@PAU?$_List_node@PAVProperty@@PAX@1@PBV?$_List_val@U?$_List_simple_types@PAVProperty@@@std@@@1@@Z 1010ba54 f i setup.obj
 0001:0010aa90       ??0?$_List_const_iterator@V?$_List_val@U?$_List_simple_types@PAVProperty@@@std@@@std@@@std@@QAA@ABV01@@Z 1010ba90 f i setup.obj
 0001:0010aacc       ??E?$_List_const_iterator@V?$_List_val@U?$_List_simple_types@PAVProperty@@@std@@@std@@@std@@QAAAAV01@XZ 1010bacc f i setup.obj
 0001:0010abd8       ??1?$_List_unchecked_const_iterator@V?$_List_val@U?$_List_simple_types@PAVProperty@@@std@@@std@@U_Iterator_base12@2@@std@@QAA@XZ 1010bbd8 f i setup.obj
 0001:0010abf8       ??8?$_List_const_iterator@V?$_List_val@U?$_List_simple_types@PAVProperty@@@std@@@std@@@std@@QBA_NABV01@@Z 1010bbf8 f i setup.obj
 0001:0010ad08       ?_Myval@?$_List_val@U?$_List_simple_types@PAVProperty@@@std@@@std@@SAAAPAVProperty@@PAU?$_List_node@PAVProperty@@PAX@2@@Z 1010bd08 f i setup.obj
 0001:0010ad38       ??0?$_List_iterator@V?$_List_val@U?$_List_simple_types@PAVProperty@@@std@@@std@@@std@@QAA@PAU?$_List_node@PAVProperty@@PAX@1@PBV?$_List_val@U?$_List_simple_types@PAVProperty@@@std@@@1@@Z 1010bd38 f i setup.obj
 0001:0010ad74       ??0?$_List_iterator@V?$_List_val@U?$_List_simple_types@PAVProperty@@@std@@@std@@@std@@QAA@ABV01@@Z 1010bd74 f i setup.obj
 0001:0010adb0       ??E?$_List_iterator@V?$_List_val@U?$_List_simple_types@PAVProperty@@@std@@@std@@@std@@QAAAAV01@XZ 1010bdb0 f i setup.obj
 0001:0010ade4       ?find_last_not_of@?$basic_string@DU?$char_traits@D@std@@V?$allocator@D@2@@std@@QBAIPBDII@Z 1010bde4 f i setup.obj
 0001:0010aed0       ??0?$_List_const_iterator@V?$_List_val@U?$_List_simple_types@PAVSection@@@std@@@std@@@std@@QAA@PAU?$_List_node@PAVSection@@PAX@1@PBV?$_List_val@U?$_List_simple_types@PAVSection@@@std@@@1@@Z 1010bed0 f i setup.obj
 0001:0010af0c       ??E?$_List_const_iterator@V?$_List_val@U?$_List_simple_types@PAVSection@@@std@@@std@@@std@@QAAAAV01@XZ 1010bf0c f i setup.obj
 0001:0010b018       ??1?$_List_unchecked_const_iterator@V?$_List_val@U?$_List_simple_types@PAVSection@@@std@@@std@@U_Iterator_base12@2@@std@@QAA@XZ 1010c018 f i setup.obj
 0001:0010b038       ??8?$_List_const_iterator@V?$_List_val@U?$_List_simple_types@PAVSection@@@std@@@std@@@std@@QBA_NABV01@@Z 1010c038 f i setup.obj
 0001:0010b148       ?_Myval@?$_List_val@U?$_List_simple_types@PAVSection@@@std@@@std@@SAAAPAVSection@@PAU?$_List_node@PAVSection@@PAX@2@@Z 1010c148 f i setup.obj
 0001:0010b178       ?replace@?$basic_string@DU?$char_traits@D@std@@V?$allocator@D@2@@std@@QAAAAV12@IIPBDI@Z 1010c178 f i setup.obj
 0001:0010b368       ??E?$_Vector_const_iterator@V?$_Vector_val@U?$_Simple_types@VValue@@@std@@@std@@@std@@QAAAAV01@XZ 1010c368 f i setup.obj
 0001:0010b468       ??0Section@@QAA@ABV?$basic_string@DU?$char_traits@D@std@@V?$allocator@D@2@@std@@@Z 1010c468 f i setup.obj
 0001:0010b504       ??0?$list@PAVProperty@@V?$allocator@PAVProperty@@@std@@@std@@QAA@XZ 1010c504 f i setup.obj
 0001:0010b54c       ?_Unchecked_end@?$list@PAVSection@@V?$allocator@PAVSection@@@std@@@std@@QAA?AV?$_List_unchecked_iterator@V?$_List_val@U?$_List_simple_types@PAVSection@@@std@@@std@@@2@XZ 1010c54c f i setup.obj
 0001:0010b58c       ??$_Insert@ABQAVSection@@@?$list@PAVSection@@V?$allocator@PAVSection@@@std@@@std@@QAAXV?$_List_unchecked_const_iterator@V?$_List_val@U?$_List_simple_types@PAVSection@@@std@@@std@@U_Iterator_base0@2@@1@ABQAVSection@@@Z 1010c58c f i setup.obj
 0001:0010b62c       ?_Tidy@?$list@PAVProperty@@V?$allocator@PAVProperty@@@std@@@std@@QAAXXZ 1010c62c f i setup.obj
 0001:0010b64c       ??1?$_List_buy@PAVProperty@@V?$allocator@PAVProperty@@@std@@@std@@QAA@XZ 1010c64c f i setup.obj
 0001:0010b66c       ??_ESection@@UAAPAXI@Z     1010c66c f i setup.obj
 0001:0010b66c       ??_GSection@@UAAPAXI@Z     1010c66c f i setup.obj
 0001:0010b6b4       ??1?$list@UFunction_wrapper@Section@@V?$allocator@UFunction_wrapper@Section@@@std@@@std@@QAA@XZ 1010c6b4 f i setup.obj
 0001:0010b6dc       ??_GSection_line@@UAAPAXI@Z 1010c6dc f i setup.obj
 0001:0010b6dc       ??_ESection_line@@UAAPAXI@Z 1010c6dc f i setup.obj
 0001:0010b724       ??0?$_List_iterator@V?$_List_val@U?$_List_simple_types@PAVSection@@@std@@@std@@@std@@QAA@PAU?$_List_node@PAVSection@@PAX@1@PBV?$_List_val@U?$_List_simple_types@PAVSection@@@std@@@1@@Z 1010c724 f i setup.obj
 0001:0010b760       ??0?$_List_unchecked_const_iterator@V?$_List_val@U?$_List_simple_types@PAVSection@@@std@@@std@@U_Iterator_base12@2@@std@@QAA@ABV01@@Z 1010c760 f i setup.obj
 0001:0010b7b0       ??$forward@UFunction_wrapper@Section@@@std@@YA$$QAUFunction_wrapper@Section@@AAU12@@Z 1010c7b0 f i setup.obj
 0001:0010b7e0       ?_Unchecked_end@?$list@UFunction_wrapper@Section@@V?$allocator@UFunction_wrapper@Section@@@std@@@std@@QAA?AV?$_List_unchecked_iterator@V?$_List_val@U?$_List_simple_types@UFunction_wrapper@Section@@@std@@@std@@@2@XZ 1010c7e0 f i setup.obj
 0001:0010b820       ??$_Insert@UFunction_wrapper@Section@@@?$list@UFunction_wrapper@Section@@V?$allocator@UFunction_wrapper@Section@@@std@@@std@@QAAXV?$_List_unchecked_const_iterator@V?$_List_val@U?$_List_simple_types@UFunction_wrapper@Section@@@std@@@std@@U_Iterator_base0@2@@1@$$QAUFunction_wrapper@Section@@@Z 1010c820 f i setup.obj
 0001:0010b8c0       ?_Unchecked_begin@?$list@UFunction_wrapper@Section@@V?$allocator@UFunction_wrapper@Section@@@std@@@std@@QAA?AV?$_List_unchecked_iterator@V?$_List_val@U?$_List_simple_types@UFunction_wrapper@Section@@@std@@@std@@@2@XZ 1010c8c0 f i setup.obj
 0001:0010b90c       ?_Nextnode@?$_List_val@U?$_List_simple_types@UFunction_wrapper@Section@@@std@@@std@@SAAAPAU?$_List_node@UFunction_wrapper@Section@@PAX@2@PAU32@@Z 1010c90c f i setup.obj
 0001:0010b93c       ??0?$_List_iterator@V?$_List_val@U?$_List_simple_types@UFunction_wrapper@Section@@@std@@@std@@@std@@QAA@PAU?$_List_node@UFunction_wrapper@Section@@PAX@1@PBV?$_List_val@U?$_List_simple_types@UFunction_wrapper@Section@@@std@@@1@@Z 1010c93c f i setup.obj
 0001:0010b978       ??0?$_List_iterator@V?$_List_val@U?$_List_simple_types@UFunction_wrapper@Section@@@std@@@std@@@std@@QAA@ABV01@@Z 1010c978 f i setup.obj
 0001:0010b9b4       ??E?$_List_iterator@V?$_List_val@U?$_List_simple_types@UFunction_wrapper@Section@@@std@@@std@@@std@@QAAAAV01@XZ 1010c9b4 f i setup.obj
 0001:0010b9e8       ??1?$_List_const_iterator@V?$_List_val@U?$_List_simple_types@UFunction_wrapper@Section@@@std@@@std@@@std@@QAA@XZ 1010c9e8 f i setup.obj
 0001:0010ba08       ??8?$_List_const_iterator@V?$_List_val@U?$_List_simple_types@UFunction_wrapper@Section@@@std@@@std@@@std@@QBA_NABV01@@Z 1010ca08 f i setup.obj
 0001:0010bb18       ??D?$_List_const_iterator@V?$_List_val@U?$_List_simple_types@UFunction_wrapper@Section@@@std@@@std@@@std@@QBAABUFunction_wrapper@Section@@XZ 1010cb18 f i setup.obj
 0001:0010bc14       ??0?$_List_unchecked_const_iterator@V?$_List_val@U?$_List_simple_types@UFunction_wrapper@Section@@@std@@@std@@U_Iterator_base12@2@@std@@QAA@ABV01@@Z 1010cc14 f i setup.obj
 0001:0010bc64       ??E?$_List_const_iterator@V?$_List_val@U?$_List_simple_types@UFunction_wrapper@Section@@@std@@@std@@@std@@QAA?AV01@H@Z 1010cc64 f i setup.obj
 0001:0010bd0c       ?_Mynode@?$_List_unchecked_const_iterator@V?$_List_val@U?$_List_simple_types@UFunction_wrapper@Section@@@std@@@std@@U_Iterator_base12@2@@std@@QBAPAU?$_List_node@UFunction_wrapper@Section@@PAX@2@XZ 1010cd0c f i setup.obj
 0001:0010bd40       ?_Orphan_ptr@?$list@UFunction_wrapper@Section@@V?$allocator@UFunction_wrapper@Section@@@std@@@std@@QBAXAAV12@PAU?$_List_node@UFunction_wrapper@Section@@PAX@2@@Z 1010cd40 f i setup.obj
 0001:0010be54       ?_Prevnode@?$_List_val@U?$_List_simple_types@UFunction_wrapper@Section@@@std@@@std@@SAAAPAU?$_List_node@UFunction_wrapper@Section@@PAX@2@PAU32@@Z 1010ce54 f i setup.obj
 0001:0010be84       ?_Freenode@?$_List_buy@UFunction_wrapper@Section@@V?$allocator@UFunction_wrapper@Section@@@std@@@std@@QAAXPAU?$_List_node@UFunction_wrapper@Section@@PAX@2@@Z 1010ce84 f i setup.obj
 0001:0010bf50       ?_Make_iter@?$list@UFunction_wrapper@Section@@V?$allocator@UFunction_wrapper@Section@@@std@@@std@@QBA?AV?$_List_iterator@V?$_List_val@U?$_List_simple_types@UFunction_wrapper@Section@@@std@@@std@@@2@V?$_List_const_iterator@V?$_List_val@U?$_List_simple_types@UFunction_wrapper@Section@@@std@@@std@@@2@@Z 1010cf50 f i setup.obj
 0001:0010bf98       ??4?$_List_const_iterator@V?$_List_val@U?$_List_simple_types@UFunction_wrapper@Section@@@std@@@std@@@std@@QAAAAV01@ABV01@@Z 1010cf98 f i setup.obj
 0001:0010bfd0       ??0?$reverse_iterator@V?$_List_iterator@V?$_List_val@U?$_List_simple_types@PAVSection@@@std@@@std@@@std@@@std@@QAA@V?$_List_iterator@V?$_List_val@U?$_List_simple_types@PAVSection@@@std@@@std@@@1@@Z 1010cfd0 f i setup.obj
 0001:0010c048       ??0?$reverse_iterator@V?$_List_iterator@V?$_List_val@U?$_List_simple_types@PAVSection@@@std@@@std@@@std@@@std@@QAA@ABV01@@Z 1010d048 f i setup.obj
 0001:0010c084       ??$?8V?$_List_iterator@V?$_List_val@U?$_List_simple_types@PAVSection@@@std@@@std@@@std@@V01@@std@@YA_NABV?$reverse_iterator@V?$_List_iterator@V?$_List_val@U?$_List_simple_types@PAVSection@@@std@@@std@@@std@@@0@0@Z 1010d084 f i setup.obj
 0001:0010c0c8       ??1?$_Revranit@V?$_List_iterator@V?$_List_val@U?$_List_simple_types@PAVSection@@@std@@@std@@@std@@U?$iterator@Ubidirectional_iterator_tag@std@@PAVSection@@HPAPAV3@AAPAV3@@2@@std@@QAA@XZ 1010d0c8 f i setup.obj
 0001:0010c0e8       ??0?$_List_iterator@V?$_List_val@U?$_List_simple_types@PAVSection@@@std@@@std@@@std@@QAA@ABV01@@Z 1010d0e8 f i setup.obj
 0001:0010c124       ??F?$_List_iterator@V?$_List_val@U?$_List_simple_types@PAVSection@@@std@@@std@@@std@@QAAAAV01@XZ 1010d124 f i setup.obj
 0001:0010c158       ??E?$reverse_iterator@V?$_List_iterator@V?$_List_val@U?$_List_simple_types@PAVSection@@@std@@@std@@@std@@@std@@QAAAAV01@XZ 1010d158 f i setup.obj
 0001:0010c18c       ?_Tidy@?$list@PAVSection@@V?$allocator@PAVSection@@@std@@@std@@QAAXXZ 1010d18c f i setup.obj
 0001:0010c1ac       ??1?$_List_buy@PAVSection@@V?$allocator@PAVSection@@@std@@@std@@QAA@XZ 1010d1ac f i setup.obj
 0001:0010c1cc       ??E?$_List_iterator@V?$_List_val@U?$_List_simple_types@PAVSection@@@std@@@std@@@std@@QAAAAV01@XZ 1010d1cc f i setup.obj
 0001:0010c200       ??_E?$basic_ifstream@DU?$char_traits@D@std@@@std@@$4PPPPPPPM@A@AAPAXI@Z 1010d200 f i setup.obj
 0001:0010c21c       ?_Add_vtordisp1@?$basic_istream@DU?$char_traits@D@std@@@std@@$4PPPPPPPM@FI@AAXXZ 1010d21c f i setup.obj
 0001:0010c23c       ??0?$basic_filebuf@DU?$char_traits@D@std@@@std@@QAA@PAU_iobuf@@@Z 1010d23c f i setup.obj
 0001:0010c2bc       ?open@?$basic_filebuf@DU?$char_traits@D@std@@@std@@QAAPAV12@PBDHH@Z 1010d2bc f i setup.obj
 0001:0010c380       ??1?$basic_filebuf@DU?$char_traits@D@std@@@std@@UAA@XZ 1010d380 f i setup.obj
 0001:0010c3dc       ??1?$basic_ifstream@DU?$char_traits@D@std@@@std@@UAA@XZ 1010d3dc f i setup.obj
 0001:0010c470       ?rfind@?$basic_string@DU?$char_traits@D@std@@V?$allocator@D@2@@std@@QBAIPBDII@Z 1010d470 f i setup.obj
 0001:0010c5b0       ??$getline@DU?$char_traits@D@std@@V?$allocator@D@2@@std@@YAAAV?$basic_istream@DU?$char_traits@D@std@@@0@$$QAV10@AAV?$basic_string@DU?$char_traits@D@std@@V?$allocator@D@2@@0@D@Z 1010d5b0 f i setup.obj
 0001:0010c83c       ??0?$_List_const_iterator@V?$_List_val@U?$_List_simple_types@V?$basic_string@DU?$char_traits@D@std@@V?$allocator@D@2@@std@@@std@@@std@@@std@@QAA@XZ 1010d83c f i setup.obj
 0001:0010c874       ??0?$_List_unchecked_const_iterator@V?$_List_val@U?$_List_simple_types@V?$basic_string@DU?$char_traits@D@std@@V?$allocator@D@2@@std@@@std@@@std@@U_Iterator_base12@2@@std@@QAA@ABV01@@Z 1010d874 f i setup.obj
 0001:0010c8c4       ??E?$_List_const_iterator@V?$_List_val@U?$_List_simple_types@V?$basic_string@DU?$char_traits@D@std@@V?$allocator@D@2@@std@@@std@@@std@@@std@@QAA?AV01@H@Z 1010d8c4 f i setup.obj
 0001:0010c96c       ?_Mynode@?$_List_unchecked_const_iterator@V?$_List_val@U?$_List_simple_types@V?$basic_string@DU?$char_traits@D@std@@V?$allocator@D@2@@std@@@std@@@std@@U_Iterator_base12@2@@std@@QBAPAU?$_List_node@V?$basic_string@DU?$char_traits@D@std@@V?$allocator@D@2@@std@@PAX@2@XZ 1010d96c f i setup.obj
 0001:0010c9a0       ?_Orphan_ptr@?$list@V?$basic_string@DU?$char_traits@D@std@@V?$allocator@D@2@@std@@V?$allocator@V?$basic_string@DU?$char_traits@D@std@@V?$allocator@D@2@@std@@@2@@std@@QBAXAAV12@PAU?$_List_node@V?$basic_string@DU?$char_traits@D@std@@V?$allocator@D@2@@std@@PAX@2@@Z 1010d9a0 f i setup.obj
 0001:0010cab4       ?_Make_iter@?$list@V?$basic_string@DU?$char_traits@D@std@@V?$allocator@D@2@@std@@V?$allocator@V?$basic_string@DU?$char_traits@D@std@@V?$allocator@D@2@@std@@@2@@std@@QBA?AV?$_List_iterator@V?$_List_val@U?$_List_simple_types@V?$basic_string@DU?$char_traits@D@std@@V?$allocator@D@2@@std@@@std@@@std@@@2@V?$_List_const_iterator@V?$_List_val@U?$_List_simple_types@V?$basic_string@DU?$char_traits@D@std@@V?$allocator@D@2@@std@@@std@@@std@@@2@@Z 1010dab4 f i setup.obj
 0001:0010cafc       ??4?$_List_const_iterator@V?$_List_val@U?$_List_simple_types@V?$basic_string@DU?$char_traits@D@std@@V?$allocator@D@2@@std@@@std@@@std@@@std@@QAAAAV01@ABV01@@Z 1010dafc f i setup.obj
 0001:0010cb34       ??D?$_List_const_iterator@V?$_List_val@U?$_List_simple_types@V?$basic_string@DU?$char_traits@D@std@@V?$allocator@D@2@@std@@@std@@@std@@@std@@QBAABV?$basic_string@DU?$char_traits@D@std@@V?$allocator@D@2@@1@XZ 1010db34 f i setup.obj
 0001:0010cc30       ??E?$_List_const_iterator@V?$_List_val@U?$_List_simple_types@V?$basic_string@DU?$char_traits@D@std@@V?$allocator@D@2@@std@@@std@@@std@@@std@@QAAAAV01@XZ 1010dc30 f i setup.obj
 0001:0010cd3c       ??1?$_List_unchecked_const_iterator@V?$_List_val@U?$_List_simple_types@V?$basic_string@DU?$char_traits@D@std@@V?$allocator@D@2@@std@@@std@@@std@@U_Iterator_base12@2@@std@@QAA@XZ 1010dd3c f i setup.obj
 0001:0010cd5c       ??0?$_List_iterator@V?$_List_val@U?$_List_simple_types@V?$basic_string@DU?$char_traits@D@std@@V?$allocator@D@2@@std@@@std@@@std@@@std@@QAA@PAU?$_List_node@V?$basic_string@DU?$char_traits@D@std@@V?$allocator@D@2@@std@@PAX@1@PBV?$_List_val@U?$_List_simple_types@V?$basic_string@DU?$char_traits@D@std@@V?$allocator@D@2@@std@@@std@@@1@@Z 1010dd5c f i setup.obj
 0001:0010cd98       ??0?$allocator@V?$basic_string@DU?$char_traits@D@std@@V?$allocator@D@2@@std@@@std@@QAA@XZ 1010dd98 f i setup.obj
 0001:0010cdc8       ??0?$_List_buy@V?$basic_string@DU?$char_traits@D@std@@V?$allocator@D@2@@std@@V?$allocator@V?$basic_string@DU?$char_traits@D@std@@V?$allocator@D@2@@std@@@2@@std@@QAA@ABV?$allocator@V?$basic_string@DU?$char_traits@D@std@@V?$allocator@D@2@@std@@@1@@Z 1010ddc8 f i setup.obj
 0001:0010ce04       ?_Unchecked_end@?$list@V?$basic_string@DU?$char_traits@D@std@@V?$allocator@D@2@@std@@V?$allocator@V?$basic_string@DU?$char_traits@D@std@@V?$allocator@D@2@@std@@@2@@std@@QAA?AV?$_List_unchecked_iterator@V?$_List_val@U?$_List_simple_types@V?$basic_string@DU?$char_traits@D@std@@V?$allocator@D@2@@std@@@std@@@std@@@2@XZ 1010de04 f i setup.obj
 0001:0010ce44       ??$_Insert@V?$basic_string@DU?$char_traits@D@std@@V?$allocator@D@2@@std@@@?$list@V?$basic_string@DU?$char_traits@D@std@@V?$allocator@D@2@@std@@V?$allocator@V?$basic_string@DU?$char_traits@D@std@@V?$allocator@D@2@@std@@@2@@std@@QAAXV?$_List_unchecked_const_iterator@V?$_List_val@U?$_List_simple_types@V?$basic_string@DU?$char_traits@D@std@@V?$allocator@D@2@@std@@@std@@@std@@U_Iterator_base0@2@@1@$$QAV?$basic_string@DU?$char_traits@D@std@@V?$allocator@D@2@@1@@Z 1010de44 f i setup.obj
 0001:0010cee4       ??$_Insert@ABV?$basic_string@DU?$char_traits@D@std@@V?$allocator@D@2@@std@@@?$list@V?$basic_string@DU?$char_traits@D@std@@V?$allocator@D@2@@std@@V?$allocator@V?$basic_string@DU?$char_traits@D@std@@V?$allocator@D@2@@std@@@2@@std@@QAAXV?$_List_unchecked_const_iterator@V?$_List_val@U?$_List_simple_types@V?$basic_string@DU?$char_traits@D@std@@V?$allocator@D@2@@std@@@std@@@std@@U_Iterator_base0@2@@1@ABV?$basic_string@DU?$char_traits@D@std@@V?$allocator@D@2@@1@@Z 1010dee4 f i setup.obj
 0001:0010cf84       ??0sentry@?$basic_istream@DU?$char_traits@D@std@@@std@@QAA@AAV12@_N@Z 1010df84 f i setup.obj
 0001:0010d004       ??Bsentry@?$basic_istream@DU?$char_traits@D@std@@@std@@QBAPQ?$_Bool_struct@V?$basic_istream@DU?$char_traits@D@std@@@std@@@2@HXZ 1010e004 f i setup.obj
 0001:0010d04c       ??$use_facet@V?$ctype@D@std@@@std@@YAABV?$ctype@D@0@ABVlocale@0@@Z 1010e04c f i setup.obj
 0001:0010d1a8       ??1locale@std@@QAA@XZ      1010e1a8 f i setup.obj
 0001:0010d1f8       ??1sentry@?$basic_istream@DU?$char_traits@D@std@@@std@@QAA@XZ 1010e1f8 f i setup.obj
 0001:0010d218       ??_G?$basic_ostringstream@DU?$char_traits@D@std@@V?$allocator@D@2@@std@@UAAPAXI@Z 1010e218 f i setup.obj
 0001:0010d218       ??_E?$basic_ostringstream@DU?$char_traits@D@std@@V?$allocator@D@2@@std@@UAAPAXI@Z 1010e218 f i setup.obj
 0001:0010d26c       ??0_Sentry_base@?$basic_ostream@DU?$char_traits@D@std@@@std@@QAA@AAV12@@Z 1010e26c f i setup.obj
 0001:0010d308       ??1_Sentry_base@?$basic_ostream@DU?$char_traits@D@std@@@std@@QAA@XZ 1010e308 f i setup.obj
 0001:0010d394       ??0?$basic_string@DU?$char_traits@D@std@@V?$allocator@D@2@@std@@QAA@PBDI@Z 1010e394 f i setup.obj
 0001:0010d410       ??0?$_Vector_const_iterator@V?$_Vector_val@U?$_Simple_types@VValue@@@std@@@std@@@std@@QAA@PAVValue@@PBU_Container_base12@1@@Z 1010e410 f i setup.obj
 0001:0010d47c       ??0?$_Vector_const_iterator@V?$_Vector_val@U?$_Simple_types@VValue@@@std@@@std@@@std@@QAA@ABV01@@Z 1010e47c f i setup.obj
 0001:0010d4cc       ??1?$_Iterator012@Urandom_access_iterator_tag@std@@VValue@@HPBV3@ABV3@U_Iterator_base12@2@@std@@QAA@XZ 1010e4cc f i setup.obj
 0001:0010d4ec       ?_Compat@?$_Vector_const_iterator@V?$_Vector_val@U?$_Simple_types@VValue@@@std@@@std@@@std@@QBAXABV12@@Z 1010e4ec f i setup.obj
 0001:0010d5c4       ??$?8V?$allocator@D@std@@V01@@std@@YA_NABU?$_Wrap_alloc@V?$allocator@D@std@@@0@0@Z 1010e5c4 f i setup.obj
 0001:0010d628       ??0?$_String_iterator@V?$_String_val@U?$_Simple_types@D@std@@@std@@@std@@QAA@PADPBU_Container_base12@1@@Z 1010e628 f i setup.obj
 0001:0010d664       ??0?$_String_iterator@V?$_String_val@U?$_Simple_types@D@std@@@std@@@std@@QAA@ABV01@@Z 1010e664 f i setup.obj
 0001:0010d6a0       ??0?$_String_const_iterator@V?$_String_val@U?$_Simple_types@D@std@@@std@@@std@@QAA@ABV01@@Z 1010e6a0 f i setup.obj
 0001:0010d6f0       ?replace@?$basic_string@DU?$char_traits@D@std@@V?$allocator@D@2@@std@@QAAAAV12@V?$_String_const_iterator@V?$_String_val@U?$_Simple_types@D@std@@@std@@@2@0V?$_String_iterator@V?$_String_val@U?$_Simple_types@D@std@@@std@@@2@1@Z 1010e6f0 f i setup.obj
 0001:0010da2c       ??1?$_String_iterator@V?$_String_val@U?$_Simple_types@D@std@@@std@@@std@@QAA@XZ 1010ea2c f i setup.obj
 0001:0010da4c       ??1?$_String_const_iterator@V?$_String_val@U?$_Simple_types@D@std@@@std@@@std@@QAA@XZ 1010ea4c f i setup.obj
 0001:0010da6c       ??0?$_Wrap_alloc@V?$allocator@VValue@@@std@@@std@@QAA@XZ 1010ea6c f i setup.obj
 0001:0010daa0       ?select_on_container_copy_construction@?$allocator_traits@V?$allocator@VValue@@@std@@@std@@SA?AV?$allocator@VValue@@@2@ABV32@@Z 1010eaa0 f i setup.obj
 0001:0010dad8       ??0?$_Wrap_alloc@V?$allocator@VValue@@@std@@@std@@QAA@ABV?$allocator@VValue@@@1@@Z 1010ead8 f i setup.obj
 0001:0010db10       ??0?$_Vector_val@U?$_Simple_types@VValue@@@std@@@std@@QAA@XZ 1010eb10 f i setup.obj
 0001:0010db74       ?_Alloc_proxy@?$_Vector_alloc@$0A@U?$_Vec_base_types@VValue@@V?$allocator@VValue@@@std@@@std@@@std@@QAAXXZ 1010eb74 f i setup.obj
 0001:0010dbf8       ??1?$_Vector_val@U?$_Simple_types@VValue@@@std@@@std@@QAA@XZ 1010ebf8 f i setup.obj
 0001:0010dc20       ?max_size@?$vector@VValue@@V?$allocator@VValue@@@std@@@std@@QBAIXZ 1010ec20 f i setup.obj
 0001:0010dc68       ?_Xlen@?$vector@VValue@@V?$allocator@VValue@@@std@@@std@@IBAXXZ 1010ec68 f i setup.obj
 0001:0010dc8c       ?allocate@?$_Wrap_alloc@V?$allocator@VValue@@@std@@@std@@QAAPAVValue@@I@Z 1010ec8c f i setup.obj
 0001:0010dcc8       ??$_Uninitialized_copy@V?$_Vector_const_iterator@V?$_Vector_val@U?$_Simple_types@VValue@@@std@@@std@@@std@@PAVValue@@U?$_Wrap_alloc@V?$allocator@VValue@@@std@@@2@@std@@YAPAVValue@@V?$_Vector_const_iterator@V?$_Vector_val@U?$_Simple_types@VValue@@@std@@@std@@@0@0PAV1@AAU?$_Wrap_alloc@V?$allocator@VValue@@@std@@@0@@Z 1010ecc8 f i setup.obj
 0001:0010ddb0       ?_Destroy@?$vector@VValue@@V?$allocator@VValue@@@std@@@std@@IAAXPAVValue@@0@Z 1010edb0 f i setup.obj
 0001:0010de0c       ?deallocate@?$_Wrap_alloc@V?$allocator@VValue@@@std@@@std@@QAAXPAVValue@@I@Z 1010ee0c f i setup.obj
 0001:0010de30       ?_Free_proxy@?$_Vector_alloc@$0A@U?$_Vec_base_types@VValue@@V?$allocator@VValue@@@std@@@std@@@std@@QAAXXZ 1010ee30 f i setup.obj
 0001:0010deb0       ?_Unused_capacity@?$vector@VValue@@V?$allocator@VValue@@@std@@@std@@QBAIXZ 1010eeb0 f i setup.obj
 0001:0010def4       ?_Grow_to@?$vector@VValue@@V?$allocator@VValue@@@std@@@std@@IBAII@Z 1010eef4 f i setup.obj
 0001:0010df84       ?_Reallocate@?$vector@VValue@@V?$allocator@VValue@@@std@@@std@@IAAXI@Z 1010ef84 f i setup.obj
 0001:0010e0d4       ??$forward@AAVValue@@@std@@YAAAVValue@@AAV1@@Z 1010f0d4 f i setup.obj
 0001:0010e104       ??$construct@VValue@@AAV1@@?$allocator_traits@V?$allocator@VValue@@@std@@@std@@SAXAAV?$allocator@VValue@@@1@PAVValue@@AAV3@@Z 1010f104 f i setup.obj
 0001:0010e140       ??$forward@ABVValue@@@std@@YAABVValue@@ABV1@@Z 1010f140 f i setup.obj
 0001:0010e170       ??$construct@VValue@@ABV1@@?$allocator_traits@V?$allocator@VValue@@@std@@@std@@SAXAAV?$allocator@VValue@@@1@PAVValue@@ABV3@@Z 1010f170 f i setup.obj
 0001:0010e1ac       ??_EProperty@@UAAPAXI@Z    1010f1ac f i setup.obj
 0001:0010e1ac       ??_GProperty@@UAAPAXI@Z    1010f1ac f i setup.obj
 0001:0010e1f4       ??0?$vector@VValue@@V?$allocator@VValue@@@std@@@std@@QAA@XZ 1010f1f4 f i setup.obj
 0001:0010e23c       ??1Prop_int@@UAA@XZ        1010f23c f i setup.obj
 0001:0010e2c0       ??0?$_List_unchecked_iterator@V?$_List_val@U?$_List_simple_types@PAVProperty@@@std@@@std@@@std@@QAA@PAU?$_List_node@PAVProperty@@PAX@1@PBV?$_List_val@U?$_List_simple_types@PAVProperty@@@std@@@1@@Z 1010f2c0 f i setup.obj
 0001:0010e2fc       ?_Mynode@?$_List_unchecked_const_iterator@V?$_List_val@U?$_List_simple_types@PAVProperty@@@std@@@std@@U_Iterator_base0@2@@std@@QBAPAU?$_List_node@PAVProperty@@PAX@2@XZ 1010f2fc f i setup.obj
 0001:0010e32c       ??$forward@ABQAVProperty@@@std@@YAABQAVProperty@@ABQAV1@@Z 1010f32c f i setup.obj
 0001:0010e35c       ?_Prevnode@?$_List_val@U?$_List_simple_types@PAVProperty@@@std@@@std@@SAAAPAU?$_List_node@PAVProperty@@PAX@2@PAU32@@Z 1010f35c f i setup.obj
 0001:0010e38c       ??$_Buynode@ABQAVProperty@@@?$_List_buy@PAVProperty@@V?$allocator@PAVProperty@@@std@@@std@@QAAPAU?$_List_node@PAVProperty@@PAX@1@PAU21@0ABQAVProperty@@@Z 1010f38c f i setup.obj
 0001:0010e44c       ?_Incsize@?$list@PAVProperty@@V?$allocator@PAVProperty@@@std@@@std@@QAAXI@Z 1010f44c f i setup.obj
 0001:0010e4bc       ??0Value@@QAA@QBD@Z        1010f4bc f i setup.obj
 0001:0010e55c       ??1Prop_path@@UAA@XZ       1010f55c f i setup.obj
 0001:0010e594       ??1Prop_bool@@UAA@XZ       1010f594 f i setup.obj
 0001:0010e5c4       ??0Value@@QAA@_N@Z         1010f5c4 f i setup.obj
 0001:0010e614       ??1Prop_hex@@UAA@XZ        1010f614 f i setup.obj
 0001:0010e644       ??0Value@@QAA@VHex@@@Z     1010f644 f i setup.obj
 0001:0010e68c       ??1Prop_multival@@UAA@XZ   1010f68c f i setup.obj
 0001:0010e73c       ??1Prop_multival_remain@@UAA@XZ 1010f73c f i setup.obj
 0001:0010e75c       ??0?$_List_unchecked_const_iterator@V?$_List_val@U?$_List_simple_types@PAVProperty@@@std@@@std@@U_Iterator_base12@2@@std@@QAA@PAU?$_List_node@PAVProperty@@PAX@1@PBV?$_List_val@U?$_List_simple_types@PAVProperty@@@std@@@1@@Z 1010f75c f i setup.obj
 0001:0010e7c8       ??0?$_List_unchecked_const_iterator@V?$_List_val@U?$_List_simple_types@PAVProperty@@@std@@@std@@U_Iterator_base12@2@@std@@QAA@ABV01@@Z 1010f7c8 f i setup.obj
 0001:0010e818       ??1?$_Iterator012@Ubidirectional_iterator_tag@std@@PAVProperty@@HPBQAV3@ABQAV3@U_Iterator_base12@2@@std@@QAA@XZ 1010f818 f i setup.obj
 0001:0010e838       ??0?$_List_unchecked_const_iterator@V?$_List_val@U?$_List_simple_types@PAVSection@@@std@@@std@@U_Iterator_base12@2@@std@@QAA@PAU?$_List_node@PAVSection@@PAX@1@PBV?$_List_val@U?$_List_simple_types@PAVSection@@@std@@@1@@Z 1010f838 f i setup.obj
 0001:0010e8a4       ??1?$_Iterator012@Ubidirectional_iterator_tag@std@@PAVSection@@HPBQAV3@ABQAV3@U_Iterator_base12@2@@std@@QAA@XZ 1010f8a4 f i setup.obj
 0001:0010e8c4       ??0?$list@UFunction_wrapper@Section@@V?$allocator@UFunction_wrapper@Section@@@std@@@std@@QAA@XZ 1010f8c4 f i setup.obj
 0001:0010e90c       ??0?$allocator@PAVProperty@@@std@@QAA@XZ 1010f90c f i setup.obj
 0001:0010e93c       ??0?$_List_buy@PAVProperty@@V?$allocator@PAVProperty@@@std@@@std@@QAA@ABV?$allocator@PAVProperty@@@1@@Z 1010f93c f i setup.obj
 0001:0010e978       ??0?$_List_unchecked_iterator@V?$_List_val@U?$_List_simple_types@PAVSection@@@std@@@std@@@std@@QAA@PAU?$_List_node@PAVSection@@PAX@1@PBV?$_List_val@U?$_List_simple_types@PAVSection@@@std@@@1@@Z 1010f978 f i setup.obj
 0001:0010e9b4       ?_Mynode@?$_List_unchecked_const_iterator@V?$_List_val@U?$_List_simple_types@PAVSection@@@std@@@std@@U_Iterator_base0@2@@std@@QBAPAU?$_List_node@PAVSection@@PAX@2@XZ 1010f9b4 f i setup.obj
 0001:0010e9e4       ??$forward@ABQAVSection@@@std@@YAABQAVSection@@ABQAV1@@Z 1010f9e4 f i setup.obj
 0001:0010ea14       ??$_Buynode@ABQAVSection@@@?$_List_buy@PAVSection@@V?$allocator@PAVSection@@@std@@@std@@QAAPAU?$_List_node@PAVSection@@PAX@1@PAU21@0ABQAVSection@@@Z 1010fa14 f i setup.obj
 0001:0010ead4       ?_Incsize@?$list@PAVSection@@V?$allocator@PAVSection@@@std@@@std@@QAAXI@Z 1010fad4 f i setup.obj
 0001:0010eb44       ?clear@?$list@PAVProperty@@V?$allocator@PAVProperty@@@std@@@std@@QAAXXZ 1010fb44 f i setup.obj
 0001:0010ec0c       ??1?$_List_alloc@$0A@U?$_List_base_types@PAVProperty@@V?$allocator@PAVProperty@@@std@@@std@@@std@@QAA@XZ 1010fc0c f i setup.obj
 0001:0010ec40       ?_Tidy@?$list@UFunction_wrapper@Section@@V?$allocator@UFunction_wrapper@Section@@@std@@@std@@QAAXXZ 1010fc40 f i setup.obj
 0001:0010ec60       ??1?$_List_buy@UFunction_wrapper@Section@@V?$allocator@UFunction_wrapper@Section@@@std@@@std@@QAA@XZ 1010fc60 f i setup.obj
 0001:0010ec80       ??1Section_line@@UAA@XZ    1010fc80 f i setup.obj
 0001:0010ed00       ??0?$_Iterator012@Ubidirectional_iterator_tag@std@@PAVSection@@HPBQAV3@ABQAV3@U_Iterator_base12@2@@std@@QAA@ABU01@@Z 1010fd00 f i setup.obj
 0001:0010ed3c       ??0?$_List_unchecked_iterator@V?$_List_val@U?$_List_simple_types@UFunction_wrapper@Section@@@std@@@std@@@std@@QAA@PAU?$_List_node@UFunction_wrapper@Section@@PAX@1@PBV?$_List_val@U?$_List_simple_types@UFunction_wrapper@Section@@@std@@@1@@Z 1010fd3c f i setup.obj
 0001:0010ed78       ?_Mynode@?$_List_unchecked_const_iterator@V?$_List_val@U?$_List_simple_types@UFunction_wrapper@Section@@@std@@@std@@U_Iterator_base0@2@@std@@QBAPAU?$_List_node@UFunction_wrapper@Section@@PAX@2@XZ 1010fd78 f i setup.obj
 0001:0010eda8       ??$_Buynode@UFunction_wrapper@Section@@@?$_List_buy@UFunction_wrapper@Section@@V?$allocator@UFunction_wrapper@Section@@@std@@@std@@QAAPAU?$_List_node@UFunction_wrapper@Section@@PAX@1@PAU21@0$$QAUFunction_wrapper@Section@@@Z 1010fda8 f i setup.obj
 0001:0010ee68       ?_Incsize@?$list@UFunction_wrapper@Section@@V?$allocator@UFunction_wrapper@Section@@@std@@@std@@QAAXI@Z 1010fe68 f i setup.obj
 0001:0010eed8       ??0?$_List_const_iterator@V?$_List_val@U?$_List_simple_types@UFunction_wrapper@Section@@@std@@@std@@@std@@QAA@PAU?$_List_node@UFunction_wrapper@Section@@PAX@1@PBV?$_List_val@U?$_List_simple_types@UFunction_wrapper@Section@@@std@@@1@@Z 1010fed8 f i setup.obj
 0001:0010ef14       ??E?$_List_const_iterator@V?$_List_val@U?$_List_simple_types@UFunction_wrapper@Section@@@std@@@std@@@std@@QAAAAV01@XZ 1010ff14 f i setup.obj
 0001:0010f020       ??1?$_List_unchecked_const_iterator@V?$_List_val@U?$_List_simple_types@UFunction_wrapper@Section@@@std@@@std@@U_Iterator_base12@2@@std@@QAA@XZ 10110020 f i setup.obj
 0001:0010f040       ?_Myval@?$_List_val@U?$_List_simple_types@UFunction_wrapper@Section@@@std@@@std@@SAAAUFunction_wrapper@Section@@PAU?$_List_node@UFunction_wrapper@Section@@PAX@2@@Z 10110040 f i setup.obj
 0001:0010f070       ??0?$_Iterator012@Ubidirectional_iterator_tag@std@@UFunction_wrapper@Section@@HPBU34@ABU34@U_Iterator_base12@2@@std@@QAA@ABU01@@Z 10110070 f i setup.obj
 0001:0010f0ac       ??$addressof@PAU?$_List_node@UFunction_wrapper@Section@@PAX@std@@@std@@YAPAPAU?$_List_node@UFunction_wrapper@Section@@PAX@0@AAPAU10@@Z 101100ac f i setup.obj
 0001:0010f0dc       ?_Getal@?$_List_alloc@$0A@U?$_List_base_types@UFunction_wrapper@Section@@V?$allocator@UFunction_wrapper@Section@@@std@@@std@@@std@@QBA?AU?$_Wrap_alloc@V?$allocator@U?$_List_node@UFunction_wrapper@Section@@PAX@std@@@std@@@2@XZ 101100dc f i setup.obj
 0001:0010f110       ??$destroy@PAU?$_List_node@UFunction_wrapper@Section@@PAX@std@@@?$_Wrap_alloc@V?$allocator@U?$_List_node@UFunction_wrapper@Section@@PAX@std@@@std@@@std@@QAAXPAPAU?$_List_node@UFunction_wrapper@Section@@PAX@1@@Z 10110110 f i setup.obj
 0001:0010f130       ??$addressof@UFunction_wrapper@Section@@@std@@YAPAUFunction_wrapper@Section@@AAU12@@Z 10110130 f i setup.obj
 0001:0010f160       ??$destroy@UFunction_wrapper@Section@@@?$_Wrap_alloc@V?$allocator@U?$_List_node@UFunction_wrapper@Section@@PAX@std@@@std@@@std@@QAAXPAUFunction_wrapper@Section@@@Z 10110160 f i setup.obj
 0001:0010f180       ?deallocate@?$_Wrap_alloc@V?$allocator@U?$_List_node@UFunction_wrapper@Section@@PAX@std@@@std@@@std@@QAAXPAU?$_List_node@UFunction_wrapper@Section@@PAX@2@I@Z 10110180 f i setup.obj
 0001:0010f1a4       ??4?$_List_unchecked_const_iterator@V?$_List_val@U?$_List_simple_types@UFunction_wrapper@Section@@@std@@@std@@U_Iterator_base12@2@@std@@QAAAAV01@ABV01@@Z 101101a4 f i setup.obj
 0001:0010f1f0       ??0?$_Revranit@V?$_List_iterator@V?$_List_val@U?$_List_simple_types@PAVSection@@@std@@@std@@@std@@U?$iterator@Ubidirectional_iterator_tag@std@@PAVSection@@HPAPAV3@AAPAV3@@2@@std@@QAA@V?$_List_iterator@V?$_List_val@U?$_List_simple_types@PAVSection@@@std@@@std@@@1@@Z 101101f0 f i setup.obj
 0001:0010f250       ??0?$_Revranit@V?$_List_iterator@V?$_List_val@U?$_List_simple_types@PAVSection@@@std@@@std@@@std@@U?$iterator@Ubidirectional_iterator_tag@std@@PAVSection@@HPAPAV3@AAPAV3@@2@@std@@QAA@ABV01@@Z 10110250 f i setup.obj
 0001:0010f28c       ??$_Equal@V?$_List_iterator@V?$_List_val@U?$_List_simple_types@PAVSection@@@std@@@std@@@std@@U?$iterator@Ubidirectional_iterator_tag@std@@PAVSection@@HPAPAV3@AAPAV3@@2@@?$_Revranit@V?$_List_iterator@V?$_List_val@U?$_List_simple_types@PAVSection@@@std@@@std@@@std@@U?$iterator@Ubidirectional_iterator_tag@std@@PAVSection@@HPAPAV3@AAPAV3@@2@@std@@QBA_NABV01@@Z 1011028c f i setup.obj
 0001:0010f310       ??F?$_List_const_iterator@V?$_List_val@U?$_List_simple_types@PAVSection@@@std@@@std@@@std@@QAAAAV01@XZ 10110310 f i setup.obj
 0001:0010f424       ??E?$_Revranit@V?$_List_iterator@V?$_List_val@U?$_List_simple_types@PAVSection@@@std@@@std@@@std@@U?$iterator@Ubidirectional_iterator_tag@std@@PAVSection@@HPAPAV3@AAPAV3@@2@@std@@QAAAAV01@XZ 10110424 f i setup.obj
 0001:0010f458       ?clear@?$list@PAVSection@@V?$allocator@PAVSection@@@std@@@std@@QAAXXZ 10110458 f i setup.obj
 0001:0010f520       ??1?$_List_alloc@$0A@U?$_List_base_types@PAVSection@@V?$allocator@PAVSection@@@std@@@std@@@std@@QAA@XZ 10110520 f i setup.obj
 0001:0010f554       ??_G?$basic_ifstream@DU?$char_traits@D@std@@@std@@UAAPAXI@Z 10110554 f i setup.obj
 0001:0010f554       ??_E?$basic_ifstream@DU?$char_traits@D@std@@@std@@UAAPAXI@Z 10110554 f i setup.obj
 0001:0010f5a8       ??_G?$basic_filebuf@DU?$char_traits@D@std@@@std@@UAAPAXI@Z 101105a8 f i setup.obj
 0001:0010f5a8       ??_E?$basic_filebuf@DU?$char_traits@D@std@@@std@@UAAPAXI@Z 101105a8 f i setup.obj
 0001:0010f5f0       ?_Lock@?$basic_filebuf@DU?$char_traits@D@std@@@std@@UAAXXZ 101105f0 f i setup.obj
 0001:0010f628       ?_Unlock@?$basic_filebuf@DU?$char_traits@D@std@@@std@@UAAXXZ 10110628 f i setup.obj
 0001:0010f660       ?overflow@?$basic_filebuf@DU?$char_traits@D@std@@@std@@MAAHH@Z 10110660 f i setup.obj
 0001:0010fc64       ?pbackfail@?$basic_filebuf@DU?$char_traits@D@std@@@std@@MAAHH@Z 10110c64 f i setup.obj
 0001:0010fe3c       ?underflow@?$basic_filebuf@DU?$char_traits@D@std@@@std@@MAAHXZ 10110e3c f i setup.obj
 0001:0010ff40       ?uflow@?$basic_filebuf@DU?$char_traits@D@std@@@std@@MAAHXZ 10110f40 f i setup.obj
 0001:001104a4       ?seekoff@?$basic_filebuf@DU?$char_traits@D@std@@@std@@MAA?AV?$fpos@H@2@_JHH@Z 101114a4 f i setup.obj
 0001:00110604       ?seekpos@?$basic_filebuf@DU?$char_traits@D@std@@@std@@MAA?AV?$fpos@H@2@V32@H@Z 10111604 f i setup.obj
 0001:00110780       ?setbuf@?$basic_filebuf@DU?$char_traits@D@std@@@std@@MAAPAV?$basic_streambuf@DU?$char_traits@D@std@@@2@PAD_J@Z 10111780 f i setup.obj
 0001:0011082c       ?sync@?$basic_filebuf@DU?$char_traits@D@std@@@std@@MAAHXZ 1011182c f i setup.obj
 0001:001108e0       ?imbue@?$basic_filebuf@DU?$char_traits@D@std@@@std@@MAAXABVlocale@2@@Z 101118e0 f i setup.obj
 0001:0011091c       ?_Init@?$basic_filebuf@DU?$char_traits@D@std@@@std@@IAAXPAU_iobuf@@W4_Initfl@12@@Z 1011191c f i setup.obj
 0001:00110a00       ??$use_facet@V?$codecvt@DDH@std@@@std@@YAABV?$codecvt@DDH@0@ABVlocale@0@@Z 10111a00 f i setup.obj
 0001:00110b5c       ?_Initcvt@?$basic_filebuf@DU?$char_traits@D@std@@@std@@IAAXPBV?$codecvt@DDH@2@@Z 10111b5c f i setup.obj
 0001:00110bcc       ?_Reset_back@?$basic_filebuf@DU?$char_traits@D@std@@@std@@AAAXXZ 10111bcc f i setup.obj
 0001:00110c3c       ?close@?$basic_filebuf@DU?$char_traits@D@std@@@std@@QAAPAV12@XZ 10111c3c f i setup.obj
 0001:00110cd4       ??0?$_List_unchecked_const_iterator@V?$_List_val@U?$_List_simple_types@V?$basic_string@DU?$char_traits@D@std@@V?$allocator@D@2@@std@@@std@@@std@@U_Iterator_base12@2@@std@@QAA@XZ 10111cd4 f i setup.obj
 0001:00110d18       ??0?$_Iterator012@Ubidirectional_iterator_tag@std@@V?$basic_string@DU?$char_traits@D@std@@V?$allocator@D@2@@2@HPBV32@ABV32@U_Iterator_base12@2@@std@@QAA@ABU01@@Z 10111d18 f i setup.obj
 0001:00110d54       ??4?$_List_unchecked_const_iterator@V?$_List_val@U?$_List_simple_types@V?$basic_string@DU?$char_traits@D@std@@V?$allocator@D@2@@std@@@std@@@std@@U_Iterator_base12@2@@std@@QAAAAV01@ABV01@@Z 10111d54 f i setup.obj
 0001:00110da0       ??1?$_Iterator012@Ubidirectional_iterator_tag@std@@V?$basic_string@DU?$char_traits@D@std@@V?$allocator@D@2@@2@HPBV32@ABV32@U_Iterator_base12@2@@std@@QAA@XZ 10111da0 f i setup.obj
 0001:00110dc0       ??0?$_List_const_iterator@V?$_List_val@U?$_List_simple_types@V?$basic_string@DU?$char_traits@D@std@@V?$allocator@D@2@@std@@@std@@@std@@@std@@QAA@PAU?$_List_node@V?$basic_string@DU?$char_traits@D@std@@V?$allocator@D@2@@std@@PAX@1@PBV?$_List_val@U?$_List_simple_types@V?$basic_string@DU?$char_traits@D@std@@V?$allocator@D@2@@std@@@std@@@1@@Z 10111dc0 f i setup.obj
 0001:00110dfc       ??0?$_List_alloc@$0A@U?$_List_base_types@V?$basic_string@DU?$char_traits@D@std@@V?$allocator@D@2@@std@@V?$allocator@V?$basic_string@DU?$char_traits@D@std@@V?$allocator@D@2@@std@@@2@@std@@@std@@QAA@ABV?$allocator@V?$basic_string@DU?$char_traits@D@std@@V?$allocator@D@2@@std@@@1@@Z 10111dfc f i setup.obj
 0001:00110e98       ??0?$_List_unchecked_iterator@V?$_List_val@U?$_List_simple_types@V?$basic_string@DU?$char_traits@D@std@@V?$allocator@D@2@@std@@@std@@@std@@@std@@QAA@PAU?$_List_node@V?$basic_string@DU?$char_traits@D@std@@V?$allocator@D@2@@std@@PAX@1@PBV?$_List_val@U?$_List_simple_types@V?$basic_string@DU?$char_traits@D@std@@V?$allocator@D@2@@std@@@std@@@1@@Z 10111e98 f i setup.obj
 0001:00110ed4       ?_Mynode@?$_List_unchecked_const_iterator@V?$_List_val@U?$_List_simple_types@V?$basic_string@DU?$char_traits@D@std@@V?$allocator@D@2@@std@@@std@@@std@@U_Iterator_base0@2@@std@@QBAPAU?$_List_node@V?$basic_string@DU?$char_traits@D@std@@V?$allocator@D@2@@std@@PAX@2@XZ 10111ed4 f i setup.obj
 0001:00110f04       ??$_Buynode@V?$basic_string@DU?$char_traits@D@std@@V?$allocator@D@2@@std@@@?$_List_buy@V?$basic_string@DU?$char_traits@D@std@@V?$allocator@D@2@@std@@V?$allocator@V?$basic_string@DU?$char_traits@D@std@@V?$allocator@D@2@@std@@@2@@std@@QAAPAU?$_List_node@V?$basic_string@DU?$char_traits@D@std@@V?$allocator@D@2@@std@@PAX@1@PAU21@0$$QAV?$basic_string@DU?$char_traits@D@std@@V?$allocator@D@2@@1@@Z 10111f04 f i setup.obj
 0001:00110fc4       ?_Incsize@?$list@V?$basic_string@DU?$char_traits@D@std@@V?$allocator@D@2@@std@@V?$allocator@V?$basic_string@DU?$char_traits@D@std@@V?$allocator@D@2@@std@@@2@@std@@QAAXI@Z 10111fc4 f i setup.obj
 0001:00111034       ??$forward@ABV?$basic_string@DU?$char_traits@D@std@@V?$allocator@D@2@@std@@@std@@YAABV?$basic_string@DU?$char_traits@D@std@@V?$allocator@D@2@@0@ABV10@@Z 10112034 f i setup.obj
 0001:00111064       ??$_Buynode@ABV?$basic_string@DU?$char_traits@D@std@@V?$allocator@D@2@@std@@@?$_List_buy@V?$basic_string@DU?$char_traits@D@std@@V?$allocator@D@2@@std@@V?$allocator@V?$basic_string@DU?$char_traits@D@std@@V?$allocator@D@2@@std@@@2@@std@@QAAPAU?$_List_node@V?$basic_string@DU?$char_traits@D@std@@V?$allocator@D@2@@std@@PAX@1@PAU21@0ABV?$basic_string@DU?$char_traits@D@std@@V?$allocator@D@2@@1@@Z 10112064 f i setup.obj
 0001:00111124       ??0_Sentry_base@?$basic_istream@DU?$char_traits@D@std@@@std@@QAA@AAV12@@Z 10112124 f i setup.obj
 0001:001111c0       ??1_Sentry_base@?$basic_istream@DU?$char_traits@D@std@@@std@@QAA@XZ 101121c0 f i setup.obj
 0001:0011124c       ?_Getfacet@locale@std@@QBAPBVfacet@12@I@Z 1011224c f i setup.obj
 0001:00111324       ??$_DebugHeapDelete@V_Facet_base@std@@@std@@YAXPAV_Facet_base@0@@Z 10112324 f i setup.obj
 0001:00111360       ??0?$_Iterator012@Urandom_access_iterator_tag@std@@VValue@@HPBV3@ABV3@U_Iterator_base12@2@@std@@QAA@XZ 10112360 f i setup.obj
 0001:00111398       ??0?$_Iterator012@Urandom_access_iterator_tag@std@@VValue@@HPBV3@ABV3@U_Iterator_base12@2@@std@@QAA@ABU01@@Z 10112398 f i setup.obj
 0001:001113d4       ??$?8DD@std@@YA_NABV?$allocator@D@0@0@Z 101123d4 f i setup.obj
 0001:00111408       ??0?$_String_const_iterator@V?$_String_val@U?$_Simple_types@D@std@@@std@@@std@@QAA@PBDPBU_Container_base12@1@@Z 10112408 f i setup.obj
 0001:00111474       ??0?$_Iterator012@Urandom_access_iterator_tag@std@@DHPBDABDU_Iterator_base12@2@@std@@QAA@ABU01@@Z 10112474 f i setup.obj
 0001:001114b0       ??8?$_String_const_iterator@V?$_String_val@U?$_Simple_types@D@std@@@std@@@std@@QBA_NABV01@@Z 101124b0 f i setup.obj
 0001:00111514       ?_Pdif@?$basic_string@DU?$char_traits@D@std@@V?$allocator@D@2@@std@@SAIV?$_String_const_iterator@V?$_String_val@U?$_Simple_types@D@std@@@std@@@2@0@Z 10112514 f i setup.obj
 0001:001115a8       ??G?$_String_iterator@V?$_String_val@U?$_Simple_types@D@std@@@std@@@std@@QBAHABV?$_String_const_iterator@V?$_String_val@U?$_Simple_types@D@std@@@std@@@1@@Z 101125a8 f i setup.obj
 0001:00111628       ??D?$_String_iterator@V?$_String_val@U?$_Simple_types@D@std@@@std@@@std@@QBAAADXZ 10112628 f i setup.obj
 0001:00111660       ??1?$_Iterator012@Urandom_access_iterator_tag@std@@DHPBDABDU_Iterator_base12@2@@std@@QAA@XZ 10112660 f i setup.obj
 0001:00111680       ??0?$allocator@VValue@@@std@@QAA@XZ 10112680 f i setup.obj
 0001:001116b0       ?select_on_container_copy_construction@?$allocator@VValue@@@std@@QBA?AV12@XZ 101126b0 f i setup.obj
 0001:001116e8       ??0?$allocator@VValue@@@std@@QAA@ABV01@@Z 101126e8 f i setup.obj
 0001:00111718       ?max_size@?$_Wrap_alloc@V?$allocator@VValue@@@std@@@std@@QBAIXZ 10112718 f i setup.obj
 0001:00111750       ?allocate@?$allocator@VValue@@@std@@QAAPAVValue@@I@Z 10112750 f i setup.obj
 0001:0011178c       ??$_Ptr_cat@V?$_Vector_const_iterator@V?$_Vector_val@U?$_Simple_types@VValue@@@std@@@std@@@std@@PAVValue@@@std@@YA?AU_Nonscalar_ptr_iterator_tag@0@AAV?$_Vector_const_iterator@V?$_Vector_val@U?$_Simple_types@VValue@@@std@@@std@@@0@AAPAVValue@@@Z 1011278c f i setup.obj
 0001:001117d8       ??$_Uninit_copy@V?$_Vector_const_iterator@V?$_Vector_val@U?$_Simple_types@VValue@@@std@@@std@@@std@@PAVValue@@V?$allocator@VValue@@@2@@std@@YAPAVValue@@V?$_Vector_const_iterator@V?$_Vector_val@U?$_Simple_types@VValue@@@std@@@std@@@0@0PAV1@AAU?$_Wrap_alloc@V?$allocator@VValue@@@std@@@0@U_Nonscalar_ptr_iterator_tag@0@@Z 101127d8 f i setup.obj
 0001:0011192c       ??$_Destroy_range@U?$_Wrap_alloc@V?$allocator@VValue@@@std@@@std@@@std@@YAXPAVValue@@0AAU?$_Wrap_alloc@V?$allocator@VValue@@@std@@@0@@Z 1011292c f i setup.obj
 0001:0011197c       ?deallocate@?$allocator@VValue@@@std@@QAAXPAVValue@@I@Z 1011297c f i setup.obj
 0001:0011199c       ?capacity@?$vector@VValue@@V?$allocator@VValue@@@std@@@std@@QBAIXZ 1011299c f i setup.obj
 0001:001119e0       ??$_Umove@PAVValue@@@?$vector@VValue@@V?$allocator@VValue@@@std@@@std@@IAAPAVValue@@PAV2@00@Z 101129e0 f i setup.obj
 0001:00111a4c       ??$construct@VValue@@AAV1@@?$allocator@VValue@@@std@@QAAXPAVValue@@AAV2@@Z 10112a4c f i setup.obj
 0001:00111ad4       ?construct@?$allocator@VValue@@@std@@QAAXPAVValue@@ABV3@@Z 10112ad4 f i setup.obj
 0001:00111b54       ??0?$_List_unchecked_const_iterator@V?$_List_val@U?$_List_simple_types@PAVProperty@@@std@@@std@@U_Iterator_base0@2@@std@@QAA@PAU?$_List_node@PAVProperty@@PAX@1@PBV?$_List_val@U?$_List_simple_types@PAVProperty@@@std@@@1@@Z 10112b54 f i setup.obj
 0001:00111b94       ?_Buynode0@?$_List_alloc@$0A@U?$_List_base_types@PAVProperty@@V?$allocator@PAVProperty@@@std@@@std@@@std@@QAAPAU?$_List_node@PAVProperty@@PAX@2@PAU32@0@Z 10112b94 f i setup.obj
 0001:00111c94       ??$addressof@PAVProperty@@@std@@YAPAPAVProperty@@AAPAV1@@Z 10112c94 f i setup.obj
 0001:00111cc4       ?_Getal@?$_List_alloc@$0A@U?$_List_base_types@PAVProperty@@V?$allocator@PAVProperty@@@std@@@std@@@std@@QBA?AU?$_Wrap_alloc@V?$allocator@U?$_List_node@PAVProperty@@PAX@std@@@std@@@2@XZ 10112cc4 f i setup.obj
 0001:00111cf8       ??$construct@PAVProperty@@ABQAV1@@?$_Wrap_alloc@V?$allocator@U?$_List_node@PAVProperty@@PAX@std@@@std@@@std@@QAAXPAPAVProperty@@ABQAV2@@Z 10112cf8 f i setup.obj
 0001:00111d34       ?deallocate@?$_Wrap_alloc@V?$allocator@U?$_List_node@PAVProperty@@PAX@std@@@std@@@std@@QAAXPAU?$_List_node@PAVProperty@@PAX@2@I@Z 10112d34 f i setup.obj
 0001:00111d58       ?max_size@?$list@PAVProperty@@V?$allocator@PAVProperty@@@std@@@std@@QBAIXZ 10112d58 f i setup.obj
 0001:00111da0       ??0?$_Iterator012@Ubidirectional_iterator_tag@std@@PAVProperty@@HPBQAV3@ABQAV3@U_Iterator_base12@2@@std@@QAA@XZ 10112da0 f i setup.obj
 0001:00111dd8       ??0?$_Iterator012@Ubidirectional_iterator_tag@std@@PAVProperty@@HPBQAV3@ABQAV3@U_Iterator_base12@2@@std@@QAA@ABU01@@Z 10112dd8 f i setup.obj
 0001:00111e14       ??0?$_Iterator012@Ubidirectional_iterator_tag@std@@PAVSection@@HPBQAV3@ABQAV3@U_Iterator_base12@2@@std@@QAA@XZ 10112e14 f i setup.obj
 0001:00111e4c       ??0?$allocator@UFunction_wrapper@Section@@@std@@QAA@XZ 10112e4c f i setup.obj
 0001:00111e7c       ??0?$_List_buy@UFunction_wrapper@Section@@V?$allocator@UFunction_wrapper@Section@@@std@@@std@@QAA@ABV?$allocator@UFunction_wrapper@Section@@@1@@Z 10112e7c f i setup.obj
 0001:00111eb8       ??0?$_List_alloc@$0A@U?$_List_base_types@PAVProperty@@V?$allocator@PAVProperty@@@std@@@std@@@std@@QAA@ABV?$allocator@PAVProperty@@@1@@Z 10112eb8 f i setup.obj
 0001:00111f54       ??0?$_List_unchecked_const_iterator@V?$_List_val@U?$_List_simple_types@PAVSection@@@std@@@std@@U_Iterator_base0@2@@std@@QAA@PAU?$_List_node@PAVSection@@PAX@1@PBV?$_List_val@U?$_List_simple_types@PAVSection@@@std@@@1@@Z 10112f54 f i setup.obj
 0001:00111f94       ??$addressof@PAVSection@@@std@@YAPAPAVSection@@AAPAV1@@Z 10112f94 f i setup.obj
 0001:00111fc4       ??$construct@PAVSection@@ABQAV1@@?$_Wrap_alloc@V?$allocator@U?$_List_node@PAVSection@@PAX@std@@@std@@@std@@QAAXPAPAVSection@@ABQAV2@@Z 10112fc4 f i setup.obj
 0001:00112000       ?max_size@?$list@PAVSection@@V?$allocator@PAVSection@@@std@@@std@@QBAIXZ 10113000 f i setup.obj
 0001:00112048       ?_Freenode@?$_List_buy@PAVProperty@@V?$allocator@PAVProperty@@@std@@@std@@QAAXPAU?$_List_node@PAVProperty@@PAX@2@@Z 10113048 f i setup.obj
 0001:00112114       ?_Freeheadnode@?$_List_alloc@$0A@U?$_List_base_types@PAVProperty@@V?$allocator@PAVProperty@@@std@@@std@@@std@@QAAXPAU?$_List_node@PAVProperty@@PAX@2@@Z 10113114 f i setup.obj
 0001:001121b4       ?_Free_proxy@?$_List_alloc@$0A@U?$_List_base_types@PAVProperty@@V?$allocator@PAVProperty@@@std@@@std@@@std@@QAAXXZ 101131b4 f i setup.obj
 0001:00112234       ??1?$_List_val@U?$_List_simple_types@PAVProperty@@@std@@@std@@QAA@XZ 10113234 f i setup.obj
 0001:0011225c       ?clear@?$list@UFunction_wrapper@Section@@V?$allocator@UFunction_wrapper@Section@@@std@@@std@@QAAXXZ 1011325c f i setup.obj
 0001:00112324       ??1?$_List_alloc@$0A@U?$_List_base_types@UFunction_wrapper@Section@@V?$allocator@UFunction_wrapper@Section@@@std@@@std@@@std@@QAA@XZ 10113324 f i setup.obj
 0001:00112358       ??0?$_List_unchecked_const_iterator@V?$_List_val@U?$_List_simple_types@UFunction_wrapper@Section@@@std@@@std@@U_Iterator_base0@2@@std@@QAA@PAU?$_List_node@UFunction_wrapper@Section@@PAX@1@PBV?$_List_val@U?$_List_simple_types@UFunction_wrapper@Section@@@std@@@1@@Z 10113358 f i setup.obj
 0001:00112398       ?_Buynode0@?$_List_alloc@$0A@U?$_List_base_types@UFunction_wrapper@Section@@V?$allocator@UFunction_wrapper@Section@@@std@@@std@@@std@@QAAPAU?$_List_node@UFunction_wrapper@Section@@PAX@2@PAU32@0@Z 10113398 f i setup.obj
 0001:00112498       ??$construct@UFunction_wrapper@Section@@U12@@?$_Wrap_alloc@V?$allocator@U?$_List_node@UFunction_wrapper@Section@@PAX@std@@@std@@@std@@QAAXPAUFunction_wrapper@Section@@$$QAU23@@Z 10113498 f i setup.obj
 0001:001124d4       ?max_size@?$list@UFunction_wrapper@Section@@V?$allocator@UFunction_wrapper@Section@@@std@@@std@@QBAIXZ 101134d4 f i setup.obj
 0001:0011251c       ??0?$_List_unchecked_const_iterator@V?$_List_val@U?$_List_simple_types@UFunction_wrapper@Section@@@std@@@std@@U_Iterator_base12@2@@std@@QAA@PAU?$_List_node@UFunction_wrapper@Section@@PAX@1@PBV?$_List_val@U?$_List_simple_types@UFunction_wrapper@Section@@@std@@@1@@Z 1011351c f i setup.obj
 0001:00112588       ??1?$_Iterator012@Ubidirectional_iterator_tag@std@@UFunction_wrapper@Section@@HPBU34@ABU34@U_Iterator_base12@2@@std@@QAA@XZ 10113588 f i setup.obj
 0001:001125a8       ??0?$_Wrap_alloc@V?$allocator@U?$_List_node@UFunction_wrapper@Section@@PAX@std@@@std@@@std@@QAA@XZ 101135a8 f i setup.obj
 0001:001125dc       ??$destroy@PAU?$_List_node@UFunction_wrapper@Section@@PAX@std@@@?$allocator_traits@V?$allocator@U?$_List_node@UFunction_wrapper@Section@@PAX@std@@@std@@@std@@SAXAAV?$allocator@U?$_List_node@UFunction_wrapper@Section@@PAX@std@@@1@PAPAU?$_List_node@UFunction_wrapper@Section@@PAX@1@@Z 101135dc f i setup.obj
 0001:001125fc       ??$destroy@UFunction_wrapper@Section@@@?$allocator_traits@V?$allocator@U?$_List_node@UFunction_wrapper@Section@@PAX@std@@@std@@@std@@SAXAAV?$allocator@U?$_List_node@UFunction_wrapper@Section@@PAX@std@@@1@PAUFunction_wrapper@Section@@@Z 101135fc f i setup.obj
 0001:0011261c       ?deallocate@?$allocator@U?$_List_node@UFunction_wrapper@Section@@PAX@std@@@std@@QAAXPAU?$_List_node@UFunction_wrapper@Section@@PAX@2@I@Z 1011361c f i setup.obj
 0001:0011263c       ??4?$_Iterator012@Ubidirectional_iterator_tag@std@@UFunction_wrapper@Section@@HPBU34@ABU34@U_Iterator_base12@2@@std@@QAAAAU01@ABU01@@Z 1011363c f i setup.obj
 0001:00112674       ?base@?$_Revranit@V?$_List_iterator@V?$_List_val@U?$_List_simple_types@PAVSection@@@std@@@std@@@std@@U?$iterator@Ubidirectional_iterator_tag@std@@PAVSection@@HPAPAV3@AAPAV3@@2@@std@@QBA?AV?$_List_iterator@V?$_List_val@U?$_List_simple_types@PAVSection@@@std@@@std@@@2@XZ 10113674 f i setup.obj
 0001:001126c4       ?_Freenode@?$_List_buy@PAVSection@@V?$allocator@PAVSection@@@std@@@std@@QAAXPAU?$_List_node@PAVSection@@PAX@2@@Z 101136c4 f i setup.obj
 0001:00112790       ?_Free_proxy@?$_List_alloc@$0A@U?$_List_base_types@PAVSection@@V?$allocator@PAVSection@@@std@@@std@@@std@@QAAXXZ 10113790 f i setup.obj
 0001:00112810       ??$_Fputc@D@std@@YA_NDPAU_iobuf@@@Z 10113810 f i setup.obj
 0001:0011287c       ??0?$basic_string@DU?$char_traits@D@std@@V?$allocator@D@2@@std@@QAA@ID@Z 1011387c f i setup.obj
 0001:001128fc       ??$_Ungetc@D@std@@YA_NABDPAU_iobuf@@@Z 101138fc f i setup.obj
 0001:0011296c       ?_Set_back@?$basic_filebuf@DU?$char_traits@D@std@@@std@@AAAXXZ 1011396c f i setup.obj
 0001:00112a0c       ??$_Fgetc@D@std@@YA_NAADPAU_iobuf@@@Z 10113a0c f i setup.obj
 0001:00112a7c       ?_Endwrite@?$basic_filebuf@DU?$char_traits@D@std@@@std@@IAA_NXZ 10113a7c f i setup.obj
 0001:00112eac       ??0?$fpos@H@std@@QAA@H_J@Z 10113eac f i setup.obj
 0001:00112f18       ?seekpos@?$fpos@H@std@@QBA_JXZ 10113f18 f i setup.obj
 0001:00112f60       ?state@?$fpos@H@std@@QBAHXZ 10113f60 f i setup.obj
 0001:00112f94       ??0?$_Iterator012@Ubidirectional_iterator_tag@std@@V?$basic_string@DU?$char_traits@D@std@@V?$allocator@D@2@@2@HPBV32@ABV32@U_Iterator_base12@2@@std@@QAA@XZ 10113f94 f i setup.obj
 0001:00112fcc       ??4?$_Iterator012@Ubidirectional_iterator_tag@std@@V?$basic_string@DU?$char_traits@D@std@@V?$allocator@D@2@@2@HPBV32@ABV32@U_Iterator_base12@2@@std@@QAAAAU01@ABU01@@Z 10113fcc f i setup.obj
 0001:00113004       ??0?$_List_unchecked_const_iterator@V?$_List_val@U?$_List_simple_types@V?$basic_string@DU?$char_traits@D@std@@V?$allocator@D@2@@std@@@std@@@std@@U_Iterator_base12@2@@std@@QAA@PAU?$_List_node@V?$basic_string@DU?$char_traits@D@std@@V?$allocator@D@2@@std@@PAX@1@PBV?$_List_val@U?$_List_simple_types@V?$basic_string@DU?$char_traits@D@std@@V?$allocator@D@2@@std@@@std@@@1@@Z 10114004 f i setup.obj
 0001:00113070       ??0?$_List_val@U?$_List_simple_types@V?$basic_string@DU?$char_traits@D@std@@V?$allocator@D@2@@std@@@std@@@std@@QAA@XZ 10114070 f i setup.obj
 0001:001130c8       ?_Buyheadnode@?$_List_alloc@$0A@U?$_List_base_types@V?$basic_string@DU?$char_traits@D@std@@V?$allocator@D@2@@std@@V?$allocator@V?$basic_string@DU?$char_traits@D@std@@V?$allocator@D@2@@std@@@2@@std@@@std@@QAAPAU?$_List_node@V?$basic_string@DU?$char_traits@D@std@@V?$allocator@D@2@@std@@PAX@2@XZ 101140c8 f i setup.obj
 0001:00113104       ?_Alloc_proxy@?$_List_alloc@$0A@U?$_List_base_types@V?$basic_string@DU?$char_traits@D@std@@V?$allocator@D@2@@std@@V?$allocator@V?$basic_string@DU?$char_traits@D@std@@V?$allocator@D@2@@std@@@2@@std@@@std@@QAAXXZ 10114104 f i setup.obj
 0001:00113188       ??0?$_List_unchecked_const_iterator@V?$_List_val@U?$_List_simple_types@V?$basic_string@DU?$char_traits@D@std@@V?$allocator@D@2@@std@@@std@@@std@@U_Iterator_base0@2@@std@@QAA@PAU?$_List_node@V?$basic_string@DU?$char_traits@D@std@@V?$allocator@D@2@@std@@PAX@1@PBV?$_List_val@U?$_List_simple_types@V?$basic_string@DU?$char_traits@D@std@@V?$allocator@D@2@@std@@@std@@@1@@Z 10114188 f i setup.obj
 0001:001131c8       ?_Buynode0@?$_List_alloc@$0A@U?$_List_base_types@V?$basic_string@DU?$char_traits@D@std@@V?$allocator@D@2@@std@@V?$allocator@V?$basic_string@DU?$char_traits@D@std@@V?$allocator@D@2@@std@@@2@@std@@@std@@QAAPAU?$_List_node@V?$basic_string@DU?$char_traits@D@std@@V?$allocator@D@2@@std@@PAX@2@PAU32@0@Z 101141c8 f i setup.obj
 0001:001132c8       ??$construct@V?$basic_string@DU?$char_traits@D@std@@V?$allocator@D@2@@std@@V12@@?$_Wrap_alloc@V?$allocator@U?$_List_node@V?$basic_string@DU?$char_traits@D@std@@V?$allocator@D@2@@std@@PAX@std@@@std@@@std@@QAAXPAV?$basic_string@DU?$char_traits@D@std@@V?$allocator@D@2@@1@$$QAV21@@Z 101142c8 f i setup.obj
 0001:00113304       ?max_size@?$list@V?$basic_string@DU?$char_traits@D@std@@V?$allocator@D@2@@std@@V?$allocator@V?$basic_string@DU?$char_traits@D@std@@V?$allocator@D@2@@std@@@2@@std@@QBAIXZ 10114304 f i setup.obj
 0001:0011334c       ??$construct@V?$basic_string@DU?$char_traits@D@std@@V?$allocator@D@2@@std@@ABV12@@?$_Wrap_alloc@V?$allocator@U?$_List_node@V?$basic_string@DU?$char_traits@D@std@@V?$allocator@D@2@@std@@PAX@std@@@std@@@std@@QAAXPAV?$basic_string@DU?$char_traits@D@std@@V?$allocator@D@2@@1@ABV21@@Z 1011434c f i setup.obj
 0001:00113388       ??0?$_Iterator012@Urandom_access_iterator_tag@std@@DHPBDABDU_Iterator_base12@2@@std@@QAA@XZ 10114388 f i setup.obj
 0001:001133c0       ?_Compat@?$_String_const_iterator@V?$_String_val@U?$_Simple_types@D@std@@@std@@@std@@QBAXABV12@@Z 101143c0 f i setup.obj
 0001:00113498       ??G?$_String_const_iterator@V?$_String_val@U?$_Simple_types@D@std@@@std@@@std@@QBAHABV01@@Z 10114498 f i setup.obj
 0001:001134e0       ??D?$_String_const_iterator@V?$_String_val@U?$_Simple_types@D@std@@@std@@@std@@QBAABDXZ 101144e0 f i setup.obj
 0001:0011360c       ?max_size@?$allocator_traits@V?$allocator@VValue@@@std@@@std@@SAIABV?$allocator@VValue@@@2@@Z 1011460c f i setup.obj
 0001:00113644       ??$_Allocate@VValue@@@std@@YAPAVValue@@IPAV1@@Z 10114644 f i setup.obj
 0001:001136bc       ??$_Debug_range@V?$_Vector_const_iterator@V?$_Vector_val@U?$_Simple_types@VValue@@@std@@@std@@@std@@@std@@YAXV?$_Vector_const_iterator@V?$_Vector_val@U?$_Simple_types@VValue@@@std@@@std@@@0@0PB_WI@Z 101146bc f i setup.obj
 0001:0011378c       ??$_Debug_pointer@VValue@@@std@@YAXPAVValue@@PB_WI@Z 1011478c f i setup.obj
 0001:001137c4       ??$destroy@VValue@@@?$_Wrap_alloc@V?$allocator@VValue@@@std@@@std@@QAAXPAVValue@@@Z 101147c4 f i setup.obj
 0001:001137e4       ??$_Ptr_cat@VValue@@V1@@std@@YA?AU_Nonscalar_ptr_iterator_tag@0@PAVValue@@0@Z 101147e4 f i setup.obj
 0001:00113830       ??$_Destroy_range@U?$_Wrap_alloc@V?$allocator@VValue@@@std@@@std@@@std@@YAXPAVValue@@0AAU?$_Wrap_alloc@V?$allocator@VValue@@@std@@@0@U_Nonscalar_ptr_iterator_tag@0@@Z 10114830 f i setup.obj
 0001:00113868       ??$_Uninitialized_move@PAVValue@@PAV1@U?$_Wrap_alloc@V?$allocator@VValue@@@std@@@std@@@std@@YAPAVValue@@PAV1@00AAU?$_Wrap_alloc@V?$allocator@VValue@@@std@@@0@@Z 10114868 f i setup.obj
 0001:001138e0       ?allocate@?$_Wrap_alloc@V?$allocator@U?$_List_node@PAVProperty@@PAX@std@@@std@@@std@@QAAPAU?$_List_node@PAVProperty@@PAX@2@I@Z 101148e0 f i setup.obj
 0001:0011391c       ??$addressof@PAU?$_List_node@PAVProperty@@PAX@std@@@std@@YAPAPAU?$_List_node@PAVProperty@@PAX@0@AAPAU10@@Z 1011491c f i setup.obj
 0001:0011394c       ??$construct@PAU?$_List_node@PAVProperty@@PAX@std@@AAPAU12@@?$_Wrap_alloc@V?$allocator@U?$_List_node@PAVProperty@@PAX@std@@@std@@@std@@QAAXPAPAU?$_List_node@PAVProperty@@PAX@1@AAPAU21@@Z 1011494c f i setup.obj
 0001:00113988       ??0?$_Wrap_alloc@V?$allocator@U?$_List_node@PAVProperty@@PAX@std@@@std@@@std@@QAA@XZ 10114988 f i setup.obj
 0001:001139bc       ??$construct@PAVProperty@@ABQAV1@@?$allocator_traits@V?$allocator@U?$_List_node@PAVProperty@@PAX@std@@@std@@@std@@SAXAAV?$allocator@U?$_List_node@PAVProperty@@PAX@std@@@1@PAPAVProperty@@ABQAV3@@Z 101149bc f i setup.obj
 0001:001139f8       ?deallocate@?$allocator@U?$_List_node@PAVProperty@@PAX@std@@@std@@QAAXPAU?$_List_node@PAVProperty@@PAX@2@I@Z 101149f8 f i setup.obj
 0001:00113a18       ?max_size@?$_Wrap_alloc@V?$allocator@U?$_List_node@PAVProperty@@PAX@std@@@std@@@std@@QBAIXZ 10114a18 f i setup.obj
 0001:00113a50       ??0?$_List_alloc@$0A@U?$_List_base_types@UFunction_wrapper@Section@@V?$allocator@UFunction_wrapper@Section@@@std@@@std@@@std@@QAA@ABV?$allocator@UFunction_wrapper@Section@@@1@@Z 10114a50 f i setup.obj
 0001:00113aec       ??0?$_List_val@U?$_List_simple_types@PAVProperty@@@std@@@std@@QAA@XZ 10114aec f i setup.obj
 0001:00113b44       ?_Buyheadnode@?$_List_alloc@$0A@U?$_List_base_types@PAVProperty@@V?$allocator@PAVProperty@@@std@@@std@@@std@@QAAPAU?$_List_node@PAVProperty@@PAX@2@XZ 10114b44 f i setup.obj
 0001:00113b80       ?_Alloc_proxy@?$_List_alloc@$0A@U?$_List_base_types@PAVProperty@@V?$allocator@PAVProperty@@@std@@@std@@@std@@QAAXXZ 10114b80 f i setup.obj
 0001:00113c04       ??$construct@PAVSection@@ABQAV1@@?$allocator_traits@V?$allocator@U?$_List_node@PAVSection@@PAX@std@@@std@@@std@@SAXAAV?$allocator@U?$_List_node@PAVSection@@PAX@std@@@1@PAPAVSection@@ABQAV3@@Z 10114c04 f i setup.obj
 0001:00113c40       ?max_size@?$_Wrap_alloc@V?$allocator@U?$_List_node@PAVSection@@PAX@std@@@std@@@std@@QBAIXZ 10114c40 f i setup.obj
 0001:00113c78       ??$destroy@PAU?$_List_node@PAVProperty@@PAX@std@@@?$_Wrap_alloc@V?$allocator@U?$_List_node@PAVProperty@@PAX@std@@@std@@@std@@QAAXPAPAU?$_List_node@PAVProperty@@PAX@1@@Z 10114c78 f i setup.obj
 0001:00113c98       ??$destroy@PAVProperty@@@?$_Wrap_alloc@V?$allocator@U?$_List_node@PAVProperty@@PAX@std@@@std@@@std@@QAAXPAPAVProperty@@@Z 10114c98 f i setup.obj
 0001:00113cb8       ?_Freeheadnode@?$_List_alloc@$0A@U?$_List_base_types@UFunction_wrapper@Section@@V?$allocator@UFunction_wrapper@Section@@@std@@@std@@@std@@QAAXPAU?$_List_node@UFunction_wrapper@Section@@PAX@2@@Z 10114cb8 f i setup.obj
 0001:00113d58       ?_Free_proxy@?$_List_alloc@$0A@U?$_List_base_types@UFunction_wrapper@Section@@V?$allocator@UFunction_wrapper@Section@@@std@@@std@@@std@@QAAXXZ 10114d58 f i setup.obj
 0001:00113dd8       ??1?$_List_val@U?$_List_simple_types@UFunction_wrapper@Section@@@std@@@std@@QAA@XZ 10114dd8 f i setup.obj
 0001:00113e00       ?allocate@?$_Wrap_alloc@V?$allocator@U?$_List_node@UFunction_wrapper@Section@@PAX@std@@@std@@@std@@QAAPAU?$_List_node@UFunction_wrapper@Section@@PAX@2@I@Z 10114e00 f i setup.obj
 0001:00113e3c       ??$construct@PAU?$_List_node@UFunction_wrapper@Section@@PAX@std@@AAPAU12@@?$_Wrap_alloc@V?$allocator@U?$_List_node@UFunction_wrapper@Section@@PAX@std@@@std@@@std@@QAAXPAPAU?$_List_node@UFunction_wrapper@Section@@PAX@1@AAPAU21@@Z 10114e3c f i setup.obj
 0001:00113e78       ??$construct@UFunction_wrapper@Section@@U12@@?$allocator_traits@V?$allocator@U?$_List_node@UFunction_wrapper@Section@@PAX@std@@@std@@@std@@SAXAAV?$allocator@U?$_List_node@UFunction_wrapper@Section@@PAX@std@@@1@PAUFunction_wrapper@Section@@$$QAU34@@Z 10114e78 f i setup.obj
 0001:00113eb4       ?max_size@?$_Wrap_alloc@V?$allocator@U?$_List_node@UFunction_wrapper@Section@@PAX@std@@@std@@@std@@QBAIXZ 10114eb4 f i setup.obj
 0001:00113eec       ??0?$_Iterator012@Ubidirectional_iterator_tag@std@@UFunction_wrapper@Section@@HPBU34@ABU34@U_Iterator_base12@2@@std@@QAA@XZ 10114eec f i setup.obj
 0001:00113f24       ??0?$allocator@U?$_List_node@UFunction_wrapper@Section@@PAX@std@@@std@@QAA@XZ 10114f24 f i setup.obj
 0001:00113f54       ??$destroy@PAU?$_List_node@UFunction_wrapper@Section@@PAX@std@@@?$allocator@U?$_List_node@UFunction_wrapper@Section@@PAX@std@@@std@@QAAXPAPAU?$_List_node@UFunction_wrapper@Section@@PAX@1@@Z 10114f54 f i setup.obj
 0001:00113f6c       ??$destroy@UFunction_wrapper@Section@@@?$allocator@U?$_List_node@UFunction_wrapper@Section@@PAX@std@@@std@@QAAXPAUFunction_wrapper@Section@@@Z 10114f6c f i setup.obj
 0001:00113f84       ??$destroy@PAVSection@@@?$_Wrap_alloc@V?$allocator@U?$_List_node@PAVSection@@PAX@std@@@std@@@std@@QAAXPAPAVSection@@@Z 10114f84 f i setup.obj
 0001:00113fa4       ?assign@?$basic_string@DU?$char_traits@D@std@@V?$allocator@D@2@@std@@QAAAAV12@ID@Z 10114fa4 f i setup.obj
 0001:00114024       ?allocate@?$_Wrap_alloc@V?$allocator@U?$_List_node@V?$basic_string@DU?$char_traits@D@std@@V?$allocator@D@2@@std@@PAX@std@@@std@@@std@@QAAPAU?$_List_node@V?$basic_string@DU?$char_traits@D@std@@V?$allocator@D@2@@std@@PAX@2@I@Z 10115024 f i setup.obj
 0001:00114060       ??$construct@PAU?$_List_node@V?$basic_string@DU?$char_traits@D@std@@V?$allocator@D@2@@std@@PAX@std@@AAPAU12@@?$_Wrap_alloc@V?$allocator@U?$_List_node@V?$basic_string@DU?$char_traits@D@std@@V?$allocator@D@2@@std@@PAX@std@@@std@@@std@@QAAXPAPAU?$_List_node@V?$basic_string@DU?$char_traits@D@std@@V?$allocator@D@2@@std@@PAX@1@AAPAU21@@Z 10115060 f i setup.obj
 0001:0011409c       ??$construct@V?$basic_string@DU?$char_traits@D@std@@V?$allocator@D@2@@std@@V12@@?$allocator_traits@V?$allocator@U?$_List_node@V?$basic_string@DU?$char_traits@D@std@@V?$allocator@D@2@@std@@PAX@std@@@std@@@std@@SAXAAV?$allocator@U?$_List_node@V?$basic_string@DU?$char_traits@D@std@@V?$allocator@D@2@@std@@PAX@std@@@1@PAV?$basic_string@DU?$char_traits@D@std@@V?$allocator@D@2@@1@$$QAV31@@Z 1011509c f i setup.obj
 0001:001140d8       ?max_size@?$_Wrap_alloc@V?$allocator@U?$_List_node@V?$basic_string@DU?$char_traits@D@std@@V?$allocator@D@2@@std@@PAX@std@@@std@@@std@@QBAIXZ 101150d8 f i setup.obj
 0001:00114110       ??$construct@V?$basic_string@DU?$char_traits@D@std@@V?$allocator@D@2@@std@@ABV12@@?$allocator_traits@V?$allocator@U?$_List_node@V?$basic_string@DU?$char_traits@D@std@@V?$allocator@D@2@@std@@PAX@std@@@std@@@std@@SAXAAV?$allocator@U?$_List_node@V?$basic_string@DU?$char_traits@D@std@@V?$allocator@D@2@@std@@PAX@std@@@1@PAV?$basic_string@DU?$char_traits@D@std@@V?$allocator@D@2@@1@ABV31@@Z 10115110 f i setup.obj
 0001:0011414c       ?max_size@?$allocator@VValue@@@std@@QBAIXZ 1011514c f i setup.obj
 0001:0011417c       ??$_Iter_cat@V?$_Vector_const_iterator@V?$_Vector_val@U?$_Simple_types@VValue@@@std@@@std@@@std@@@std@@YA?AUrandom_access_iterator_tag@0@ABV?$_Vector_const_iterator@V?$_Vector_val@U?$_Simple_types@VValue@@@std@@@std@@@0@@Z 1011517c f i setup.obj
 0001:001141d8       ??$_Debug_range2@V?$_Vector_const_iterator@V?$_Vector_val@U?$_Simple_types@VValue@@@std@@@std@@@std@@@std@@YAXV?$_Vector_const_iterator@V?$_Vector_val@U?$_Simple_types@VValue@@@std@@@std@@@0@0PB_WIUrandom_access_iterator_tag@0@@Z 101151d8 f i setup.obj
 0001:00114294       ??$destroy@VValue@@@?$allocator_traits@V?$allocator@VValue@@@std@@@std@@SAXAAV?$allocator@VValue@@@1@PAVValue@@@Z 10115294 f i setup.obj
 0001:001142b4       ??$_Val_type@PAVValue@@@std@@YAPAVValue@@PAV1@@Z 101152b4 f i setup.obj
 0001:001142e4       ??$_Uninit_move@PAVValue@@PAV1@V?$allocator@VValue@@@std@@V1@@std@@YAPAVValue@@PAV1@00AAU?$_Wrap_alloc@V?$allocator@VValue@@@std@@@0@0U_Nonscalar_ptr_iterator_tag@0@@Z 101152e4 f i setup.obj
 0001:001143b4       ?allocate@?$allocator@U?$_List_node@PAVProperty@@PAX@std@@@std@@QAAPAU?$_List_node@PAVProperty@@PAX@2@I@Z 101153b4 f i setup.obj
 0001:001143f0       ??$forward@AAPAU?$_List_node@PAVProperty@@PAX@std@@@std@@YAAAPAU?$_List_node@PAVProperty@@PAX@0@AAPAU10@@Z 101153f0 f i setup.obj
 0001:00114420       ??$construct@PAU?$_List_node@PAVProperty@@PAX@std@@AAPAU12@@?$allocator_traits@V?$allocator@U?$_List_node@PAVProperty@@PAX@std@@@std@@@std@@SAXAAV?$allocator@U?$_List_node@PAVProperty@@PAX@std@@@1@PAPAU?$_List_node@PAVProperty@@PAX@1@AAPAU31@@Z 10115420 f i setup.obj
 0001:0011445c       ??0?$allocator@U?$_List_node@PAVProperty@@PAX@std@@@std@@QAA@XZ 1011545c f i setup.obj
 0001:0011448c       ??$construct@PAVProperty@@ABQAV1@@?$allocator@U?$_List_node@PAVProperty@@PAX@std@@@std@@QAAXPAPAVProperty@@ABQAV2@@Z 1011548c f i setup.obj
 0001:00114510       ?max_size@?$allocator_traits@V?$allocator@U?$_List_node@PAVProperty@@PAX@std@@@std@@@std@@SAIABV?$allocator@U?$_List_node@PAVProperty@@PAX@std@@@2@@Z 10115510 f i setup.obj
 0001:00114548       ??0?$_List_val@U?$_List_simple_types@UFunction_wrapper@Section@@@std@@@std@@QAA@XZ 10115548 f i setup.obj
 0001:001145a0       ?_Buyheadnode@?$_List_alloc@$0A@U?$_List_base_types@UFunction_wrapper@Section@@V?$allocator@UFunction_wrapper@Section@@@std@@@std@@@std@@QAAPAU?$_List_node@UFunction_wrapper@Section@@PAX@2@XZ 101155a0 f i setup.obj
 0001:001145dc       ?_Alloc_proxy@?$_List_alloc@$0A@U?$_List_base_types@UFunction_wrapper@Section@@V?$allocator@UFunction_wrapper@Section@@@std@@@std@@@std@@QAAXXZ 101155dc f i setup.obj
 0001:00114660       ??$construct@PAVSection@@ABQAV1@@?$allocator@U?$_List_node@PAVSection@@PAX@std@@@std@@QAAXPAPAVSection@@ABQAV2@@Z 10115660 f i setup.obj
 0001:001146e4       ?max_size@?$allocator_traits@V?$allocator@U?$_List_node@PAVSection@@PAX@std@@@std@@@std@@SAIABV?$allocator@U?$_List_node@PAVSection@@PAX@std@@@2@@Z 101156e4 f i setup.obj
 0001:0011471c       ??$destroy@PAU?$_List_node@PAVProperty@@PAX@std@@@?$allocator_traits@V?$allocator@U?$_List_node@PAVProperty@@PAX@std@@@std@@@std@@SAXAAV?$allocator@U?$_List_node@PAVProperty@@PAX@std@@@1@PAPAU?$_List_node@PAVProperty@@PAX@1@@Z 1011571c f i setup.obj
 0001:0011473c       ??$destroy@PAVProperty@@@?$allocator_traits@V?$allocator@U?$_List_node@PAVProperty@@PAX@std@@@std@@@std@@SAXAAV?$allocator@U?$_List_node@PAVProperty@@PAX@std@@@1@PAPAVProperty@@@Z 1011573c f i setup.obj
 0001:0011475c       ?allocate@?$allocator@U?$_List_node@UFunction_wrapper@Section@@PAX@std@@@std@@QAAPAU?$_List_node@UFunction_wrapper@Section@@PAX@2@I@Z 1011575c f i setup.obj
 0001:00114798       ??$forward@AAPAU?$_List_node@UFunction_wrapper@Section@@PAX@std@@@std@@YAAAPAU?$_List_node@UFunction_wrapper@Section@@PAX@0@AAPAU10@@Z 10115798 f i setup.obj
 0001:001147c8       ??$construct@PAU?$_List_node@UFunction_wrapper@Section@@PAX@std@@AAPAU12@@?$allocator_traits@V?$allocator@U?$_List_node@UFunction_wrapper@Section@@PAX@std@@@std@@@std@@SAXAAV?$allocator@U?$_List_node@UFunction_wrapper@Section@@PAX@std@@@1@PAPAU?$_List_node@UFunction_wrapper@Section@@PAX@1@AAPAU31@@Z 101157c8 f i setup.obj
 0001:00114804       ??$construct@UFunction_wrapper@Section@@U12@@?$allocator@U?$_List_node@UFunction_wrapper@Section@@PAX@std@@@std@@QAAXPAUFunction_wrapper@Section@@$$QAU23@@Z 10115804 f i setup.obj
 0001:0011488c       ?max_size@?$allocator_traits@V?$allocator@U?$_List_node@UFunction_wrapper@Section@@PAX@std@@@std@@@std@@SAIABV?$allocator@U?$_List_node@UFunction_wrapper@Section@@PAX@std@@@2@@Z 1011588c f i setup.obj
 0001:001148c4       ??$destroy@PAVSection@@@?$allocator_traits@V?$allocator@U?$_List_node@PAVSection@@PAX@std@@@std@@@std@@SAXAAV?$allocator@U?$_List_node@PAVSection@@PAX@std@@@1@PAPAVSection@@@Z 101158c4 f i setup.obj
 0001:001148e4       ?allocate@?$allocator@U?$_List_node@V?$basic_string@DU?$char_traits@D@std@@V?$allocator@D@2@@std@@PAX@std@@@std@@QAAPAU?$_List_node@V?$basic_string@DU?$char_traits@D@std@@V?$allocator@D@2@@std@@PAX@2@I@Z 101158e4 f i setup.obj
 0001:00114920       ??$forward@AAPAU?$_List_node@V?$basic_string@DU?$char_traits@D@std@@V?$allocator@D@2@@std@@PAX@std@@@std@@YAAAPAU?$_List_node@V?$basic_string@DU?$char_traits@D@std@@V?$allocator@D@2@@std@@PAX@0@AAPAU10@@Z 10115920 f i setup.obj
 0001:00114950       ??$construct@PAU?$_List_node@V?$basic_string@DU?$char_traits@D@std@@V?$allocator@D@2@@std@@PAX@std@@AAPAU12@@?$allocator_traits@V?$allocator@U?$_List_node@V?$basic_string@DU?$char_traits@D@std@@V?$allocator@D@2@@std@@PAX@std@@@std@@@std@@SAXAAV?$allocator@U?$_List_node@V?$basic_string@DU?$char_traits@D@std@@V?$allocator@D@2@@std@@PAX@std@@@1@PAPAU?$_List_node@V?$basic_string@DU?$char_traits@D@std@@V?$allocator@D@2@@std@@PAX@1@AAPAU31@@Z 10115950 f i setup.obj
 0001:0011498c       ??$construct@V?$basic_string@DU?$char_traits@D@std@@V?$allocator@D@2@@std@@V12@@?$allocator@U?$_List_node@V?$basic_string@DU?$char_traits@D@std@@V?$allocator@D@2@@std@@PAX@std@@@std@@QAAXPAV?$basic_string@DU?$char_traits@D@std@@V?$allocator@D@2@@1@$$QAV21@@Z 1011598c f i setup.obj
 0001:00114a14       ?max_size@?$allocator_traits@V?$allocator@U?$_List_node@V?$basic_string@DU?$char_traits@D@std@@V?$allocator@D@2@@std@@PAX@std@@@std@@@std@@SAIABV?$allocator@U?$_List_node@V?$basic_string@DU?$char_traits@D@std@@V?$allocator@D@2@@std@@PAX@std@@@2@@Z 10115a14 f i setup.obj
 0001:00114a4c       ??$construct@V?$basic_string@DU?$char_traits@D@std@@V?$allocator@D@2@@std@@ABV12@@?$allocator@U?$_List_node@V?$basic_string@DU?$char_traits@D@std@@V?$allocator@D@2@@std@@PAX@std@@@std@@QAAXPAV?$basic_string@DU?$char_traits@D@std@@V?$allocator@D@2@@1@ABV21@@Z 10115a4c f i setup.obj
 0001:00114ad4       ??$_Debug_pointer@V?$_Vector_const_iterator@V?$_Vector_val@U?$_Simple_types@VValue@@@std@@@std@@@std@@@std@@YAXAAV?$_Vector_const_iterator@V?$_Vector_val@U?$_Simple_types@VValue@@@std@@@std@@@0@PB_WI@Z 10115ad4 f i setup.obj
 0001:00114aec       ??M?$_Vector_const_iterator@V?$_Vector_val@U?$_Simple_types@VValue@@@std@@@std@@@std@@QBA_NABV01@@Z 10115aec f i setup.obj
 0001:00114b50       ??$destroy@VValue@@@?$allocator@VValue@@@std@@QAAXPAVValue@@@Z 10115b50 f i setup.obj
 0001:00114b70       ??$_Debug_range@PAVValue@@@std@@YAXPAVValue@@0PB_WI@Z 10115b70 f i setup.obj
 0001:00114bc8       ??$construct@VValue@@V1@@?$_Wrap_alloc@V?$allocator@VValue@@@std@@@std@@QAAXPAVValue@@$$QAV2@@Z 10115bc8 f i setup.obj
 0001:00114c04       ??$_Allocate@U?$_List_node@PAVProperty@@PAX@std@@@std@@YAPAU?$_List_node@PAVProperty@@PAX@0@IPAU10@@Z 10115c04 f i setup.obj
 0001:00114c84       ??$construct@PAU?$_List_node@PAVProperty@@PAX@std@@AAPAU12@@?$allocator@U?$_List_node@PAVProperty@@PAX@std@@@std@@QAAXPAPAU?$_List_node@PAVProperty@@PAX@1@AAPAU21@@Z 10115c84 f i setup.obj
 0001:00114d08       ?max_size@?$allocator@U?$_List_node@PAVProperty@@PAX@std@@@std@@QBAIXZ 10115d08 f i setup.obj
 0001:00114d3c       ?max_size@?$allocator@U?$_List_node@PAVSection@@PAX@std@@@std@@QBAIXZ 10115d3c f i setup.obj
 0001:00114d70       ??$destroy@PAU?$_List_node@PAVProperty@@PAX@std@@@?$allocator@U?$_List_node@PAVProperty@@PAX@std@@@std@@QAAXPAPAU?$_List_node@PAVProperty@@PAX@1@@Z 10115d70 f i setup.obj
 0001:00114d88       ??$destroy@PAVProperty@@@?$allocator@U?$_List_node@PAVProperty@@PAX@std@@@std@@QAAXPAPAVProperty@@@Z 10115d88 f i setup.obj
 0001:00114da0       ??$_Allocate@U?$_List_node@UFunction_wrapper@Section@@PAX@std@@@std@@YAPAU?$_List_node@UFunction_wrapper@Section@@PAX@0@IPAU10@@Z 10115da0 f i setup.obj
 0001:00114e18       ??$construct@PAU?$_List_node@UFunction_wrapper@Section@@PAX@std@@AAPAU12@@?$allocator@U?$_List_node@UFunction_wrapper@Section@@PAX@std@@@std@@QAAXPAPAU?$_List_node@UFunction_wrapper@Section@@PAX@1@AAPAU21@@Z 10115e18 f i setup.obj
 0001:00114e9c       ?max_size@?$allocator@U?$_List_node@UFunction_wrapper@Section@@PAX@std@@@std@@QBAIXZ 10115e9c f i setup.obj
 0001:00114ecc       ??$destroy@PAVSection@@@?$allocator@U?$_List_node@PAVSection@@PAX@std@@@std@@QAAXPAPAVSection@@@Z 10115ecc f i setup.obj
 0001:00114ee4       ??$_Allocate@U?$_List_node@V?$basic_string@DU?$char_traits@D@std@@V?$allocator@D@2@@std@@PAX@std@@@std@@YAPAU?$_List_node@V?$basic_string@DU?$char_traits@D@std@@V?$allocator@D@2@@std@@PAX@0@IPAU10@@Z 10115ee4 f i setup.obj
 0001:00114f64       ??$construct@PAU?$_List_node@V?$basic_string@DU?$char_traits@D@std@@V?$allocator@D@2@@std@@PAX@std@@AAPAU12@@?$allocator@U?$_List_node@V?$basic_string@DU?$char_traits@D@std@@V?$allocator@D@2@@std@@PAX@std@@@std@@QAAXPAPAU?$_List_node@V?$basic_string@DU?$char_traits@D@std@@V?$allocator@D@2@@std@@PAX@1@AAPAU21@@Z 10115f64 f i setup.obj
 0001:00114fe8       ?max_size@?$allocator@U?$_List_node@V?$basic_string@DU?$char_traits@D@std@@V?$allocator@D@2@@std@@PAX@std@@@std@@QBAIXZ 10115fe8 f i setup.obj
 0001:0011501c       ??_GValue@@QAAPAXI@Z       1011601c f i setup.obj
 0001:00115064       ??$_Iter_cat@PAVValue@@@std@@YA?AUrandom_access_iterator_tag@0@ABQAVValue@@@Z 10116064 f i setup.obj
 0001:001150c0       ??$_Debug_range2@PAVValue@@@std@@YAXPAVValue@@0PB_WIUrandom_access_iterator_tag@0@@Z 101160c0 f i setup.obj
 0001:00115120       ??$forward@VValue@@@std@@YA$$QAVValue@@AAV1@@Z 10116120 f i setup.obj
 0001:00115150       ??$construct@VValue@@V1@@?$allocator_traits@V?$allocator@VValue@@@std@@@std@@SAXAAV?$allocator@VValue@@@1@PAVValue@@$$QAV3@@Z 10116150 f i setup.obj
 0001:0011518c       ??$construct@VValue@@V1@@?$allocator@VValue@@@std@@QAAXPAVValue@@$$QAV2@@Z 1011618c f i setup.obj
 0001:00115214       ?upcase@@YAXAAV?$basic_string@DU?$char_traits@D@std@@V?$allocator@D@2@@std@@@Z 10116214 f   support.obj
 0001:00115290       ?lowcase@@YAXAAV?$basic_string@DU?$char_traits@D@std@@V?$allocator@D@2@@std@@@Z 10116290 f   support.obj
 0001:0011530c       ?strreplace@@YAXPADDD@Z    1011630c f   support.obj
 0001:00115348       ?ltrim@@YAPADPAD@Z         10116348 f   support.obj
 0001:00115394       ?rtrim@@YAPADPAD@Z         10116394 f   support.obj
 0001:001153f8       ?trim@@YAPADPAD@Z          101163f8 f   support.obj
 0001:00115430       ?upcase@@YAPADPAD@Z        10116430 f   support.obj
 0001:00115488       ?lowcase@@YAPADPAD@Z       10116488 f   support.obj
 0001:001154e0       ?ScanCMDBool@@YA_NPADQBD@Z 101164e0 f   support.obj
 0001:001155d4       ?ScanCMDRemain@@YAPADPAD@Z 101165d4 f   support.obj
 0001:0011564c       ?StripWord@@YAPADAAPAD@Z   1011664c f   support.obj
 0001:0011571c       ?ConvDecWord@@YAHPAD@Z     1011671c f   support.obj
 0001:001157a8       ?ConvHexWord@@YAHPAD@Z     101167a8 f   support.obj
 0001:00115848       ?ConvDblWord@@YANPAD@Z     10116848 f   support.obj
 0001:0011587c       ?E_Exit@@YAXPBDZZ          1011687c f   support.obj
 0001:00115a90       ??$transform@V?$_String_iterator@V?$_String_val@U?$_Simple_types@D@std@@@std@@@std@@V12@P6AHH@Z@std@@YA?AV?$_String_iterator@V?$_String_val@U?$_Simple_types@D@std@@@std@@@0@V10@00P6AHH@Z@Z 10116a90 f i support.obj
 0001:00115d2c       ?strchr@@YAPADPADH@Z       10116d2c f i support.obj
 0001:00115d70       ??$_Debug_range@V?$_String_iterator@V?$_String_val@U?$_Simple_types@D@std@@@std@@@std@@@std@@YAXV?$_String_iterator@V?$_String_val@U?$_Simple_types@D@std@@@std@@@0@0PB_WI@Z 10116d70 f i support.obj
 0001:00115e40       ??$_Debug_pointer@V?$_String_iterator@V?$_String_val@U?$_Simple_types@D@std@@@std@@@std@@@std@@YAXAAV?$_String_iterator@V?$_String_val@U?$_Simple_types@D@std@@@std@@@0@PB_WI@Z 10116e40 f i support.obj
 0001:00115e58       ??$_Debug_pointer@$$A6AHH@Z@std@@YAXP6AHH@ZPB_WI@Z 10116e58 f i support.obj
 0001:00115e90       ??9?$_String_const_iterator@V?$_String_val@U?$_Simple_types@D@std@@@std@@@std@@QBA_NABV01@@Z 10116e90 f i support.obj
 0001:00115ef0       ??$_Is_checked@V?$_String_iterator@V?$_String_val@U?$_Simple_types@D@std@@@std@@@std@@@std@@YA?AU?$integral_constant@_N$00@0@V?$_String_iterator@V?$_String_val@U?$_Simple_types@D@std@@@std@@@0@@Z 10116ef0 f i support.obj
 0001:00115f44       ??$_Unchecked@V?$_String_val@U?$_Simple_types@D@std@@@std@@@std@@YAPADV?$_String_iterator@V?$_String_val@U?$_Simple_types@D@std@@@std@@@0@@Z 10116f44 f i support.obj
 0001:00115fa8       ??$_Transform1@PADV?$_String_iterator@V?$_String_val@U?$_Simple_types@D@std@@@std@@@std@@P6AHH@Z@std@@YA?AV?$_String_iterator@V?$_String_val@U?$_Simple_types@D@std@@@std@@@0@PAD0V10@P6AHH@ZU?$integral_constant@_N$00@0@@Z 10116fa8 f i support.obj
 0001:0011607c       ??$_Iter_cat@V?$_String_iterator@V?$_String_val@U?$_Simple_types@D@std@@@std@@@std@@@std@@YA?AUrandom_access_iterator_tag@0@ABV?$_String_iterator@V?$_String_val@U?$_Simple_types@D@std@@@std@@@0@@Z 1011707c f i support.obj
 0001:001160d8       ??$_Debug_range2@V?$_String_iterator@V?$_String_val@U?$_Simple_types@D@std@@@std@@@std@@@std@@YAXV?$_String_iterator@V?$_String_val@U?$_Simple_types@D@std@@@std@@@0@0PB_WIUrandom_access_iterator_tag@0@@Z 101170d8 f i support.obj
 0001:00116194       ?_Unchecked@?$_String_iterator@V?$_String_val@U?$_Simple_types@D@std@@@std@@@std@@QBAPADXZ 10117194 f i support.obj
 0001:001161c8       ??$_Iter_cat@PAD@std@@YA?AUrandom_access_iterator_tag@0@ABQAD@Z 101171c8 f i support.obj
 0001:00116224       ??$_Transform1@PADV?$_String_iterator@V?$_String_val@U?$_Simple_types@D@std@@@std@@@std@@P6AHH@Z@std@@YA?AV?$_String_iterator@V?$_String_val@U?$_Simple_types@D@std@@@std@@@0@PAD0V10@P6AHH@ZUrandom_access_iterator_tag@0@3@Z 10117224 f i support.obj
 0001:00116310       ??M?$_String_const_iterator@V?$_String_val@U?$_Simple_types@D@std@@@std@@@std@@QBA_NABV01@@Z 10117310 f i support.obj
 0001:00116374       ??H?$_String_iterator@V?$_String_val@U?$_Simple_types@D@std@@@std@@@std@@QBA?AV01@H@Z 10117374 f i support.obj
 0001:00116420       ??$_Transform@PADPADP6AHH@Z@std@@YAPADPAD00P6AHH@Z@Z 10117420 f i support.obj
 0001:00116484       ??Y?$_String_iterator@V?$_String_val@U?$_Simple_types@D@std@@@std@@@std@@QAAAAV01@H@Z 10117484 f i support.obj
 0001:001164bc       ??Y?$_String_const_iterator@V?$_String_val@U?$_Simple_types@D@std@@@std@@@std@@QAAAAV01@H@Z 101174bc f i support.obj
 0001:00116604       VirtualAlloc               10117604 f   kernel32:KERNEL32.dll
 0001:00116610       VirtualProtect             10117610 f   kernel32:KERNEL32.dll
 0001:0011661c       GetCurrentProcess          1011761c f   kernel32:KERNEL32.dll
 0001:00116628       FlushInstructionCache      10117628 f   kernel32:KERNEL32.dll
 0001:00116634       FindFirstFileA             10117634 f   kernel32:KERNEL32.dll
 0001:00116640       FindNextFileA              10117640 f   kernel32:KERNEL32.dll
 0001:0011664c       FindClose                  1011764c f   kernel32:KERNEL32.dll
 0001:00116658       LoadLibraryA               10117658 f   kernel32:KERNEL32.dll
 0001:00116664       GetLastError               10117664 f   kernel32:KERNEL32.dll
 0001:00116670       GetProcAddress             10117670 f   kernel32:KERNEL32.dll
 0001:0011667c       ExitProcess                1011767c f   kernel32:KERNEL32.dll
 0001:00116688       VirtualFree                10117688 f   kernel32:KERNEL32.dll
 0001:00116694       EnterCriticalSection       10117694 f   kernel32:KERNEL32.dll
 0001:001166a0       LeaveCriticalSection       101176a0 f   kernel32:KERNEL32.dll
 0001:001166ac       InitializeCriticalSection  101176ac f   kernel32:KERNEL32.dll
 0001:001166b8       DeleteCriticalSection      101176b8 f   kernel32:KERNEL32.dll
 0001:001166c4       SHGetSpecialFolderPathA    101176c4 f   shell32:SHELL32.dll
 0001:001166d0       CbCallAtThreadExit         101176d0 f   cbacks.nt:cbacks.nt.dll
 0001:001166dc       CbReturnToHost             101176dc f   cbacks.nt:cbacks.nt.dll
 0001:001166e8       CbIsReturnToHost           101176e8 f   cbacks.nt:cbacks.nt.dll
 0001:001166f4       CbRemoveCallAtThreadExit   101176f4 f   cbacks.nt:cbacks.nt.dll
 0001:00116700       PeLdrGetCurrentTeb         10117700 f   peldr.nt:peldr.nt.dll
 0001:0011670c       PeLdrGetSystemDirectoryA   1011770c f   peldr.nt:peldr.nt.dll
 0001:00116718       PeLdrGetPageSize           10117718 f   peldr.nt:peldr.nt.dll
 0001:00116724       LogErr                     10117724 f   supp.nt:supp.nt.dll
 0001:00116730       LogPrint                   10117730 f   supp.nt:supp.nt.dll
 0001:0011673c       LogInfo                    1011773c f   supp.nt:supp.nt.dll
 0001:00116748       CfgGetString               10117748 f   supp.nt:supp.nt.dll
 0001:00116754       GetFPUCW                   10117754 f   x86_emu:x86_emu.dll
 0001:00116760       SetFPUCW                   10117760 f   x86_emu:x86_emu.dll
 0001:0011676c       _RTC_InitBase              1011776c f   MSVCRTD:init.obj
 0001:0011679c       _RTC_Shutdown              1011779c f   MSVCRTD:init.obj
 0001:001167b8       memset                     101177b8 f   MSVCRTD:MSVCR110D.dll
 0001:001167c4       strlen                     101177c4 f   MSVCRTD:MSVCR110D.dll
 0001:001167d0       ??2@YAPAXI@Z               101177d0 f   MSVCRTD:MSVCR110D.dll
 0001:001167dc       strcpy                     101177dc f   MSVCRTD:MSVCR110D.dll
 0001:001167e8       ??3@YAXPAX@Z               101177e8 f   MSVCRTD:MSVCR110D.dll
 0001:001167f4       free                       101177f4 f   MSVCRTD:MSVCR110D.dll
 0001:00116800       _RTC_CheckStackVars        10117800 f   MSVCRTD:stack.obj
 0001:0011684c       _RTC_AllocaHelper          1011784c f   MSVCRTD:stack.obj
 0001:00116878       _RTC_CheckStackVars2       10117878 f   MSVCRTD:stack.obj
 0001:00116924       __atonexitinit             10117924 f   MSVCRTD:atonexit.obj
 0001:001169f0       _onexit                    101179f0 f   MSVCRTD:atonexit.obj
 0001:00116abc       atexit                     10117abc f   MSVCRTD:atonexit.obj
 0001:00116af0       _wassert                   10117af0 f   MSVCRTD:MSVCR110D.dll
 0001:00116afc       __CxxFrameHandler3         10117afc f   MSVCRTD:MSVCR110D.dll
 0001:00116b08       malloc                     10117b08 f   MSVCRTD:MSVCR110D.dll
 0001:00116b14       ??0type_info@@AAA@ABV0@@Z  10117b14 f   MSVCRTD:ti_inst.obj
 0001:00116b2c       ??4type_info@@AAAAAV0@ABV0@@Z 10117b2c f   MSVCRTD:ti_inst.obj
 0001:00116b3c       ??_Etype_info@@UAAPAXI@Z   10117b3c f i MSVCRTD:ti_inst.obj
 0001:00116ba0       _purecall                  10117ba0 f   MSVCRTD:MSVCR110D.dll
 0001:00116bac       ?_RTC_Failure@@YAXPAXH@Z   10117bac f   MSVCRTD:error.obj
 0001:00116bfc       ?_RTC_StackFailure@@YAXPAXPBD@Z 10117bfc f   MSVCRTD:error.obj
 0001:00116c9c       ?_RTC_AllocaFailure@@YAXPAXPAU_RTC_ALLOCA_NODE@@H@Z 10117c9c f   MSVCRTD:error.obj
 0001:00116dc0       _RTC_UninitUse             10117dc0 f   MSVCRTD:error.obj
 0001:00117104       memcpy                     10118104 f   MSVCRTD:MSVCR110D.dll
 0001:00117110       fabs                       10118110 f   MSVCRTD:MSVCR110D.dll
 0001:0011711c       pow                        1011811c f   MSVCRTD:MSVCR110D.dll
 0001:00117128       log                        10118128 f   MSVCRTD:MSVCR110D.dll
 0001:00117134       tan                        10118134 f   MSVCRTD:MSVCR110D.dll
 0001:00117140       atan2                      10118140 f   MSVCRTD:MSVCR110D.dll
 0001:0011714c       __i64tod                   1011814c f   MSVCRTD:i64tofp.obj
 0001:001171e8       __u64tod                   101181e8 f   MSVCRTD:i64tofp.obj
 0001:00117274       __i64tos                   10118274 f   MSVCRTD:i64tofp.obj
 0001:0011730c       __u64tos                   1011830c f   MSVCRTD:i64tofp.obj
 0001:00117394       __i64tofp_exception_helper 10118394 f   MSVCRTD:i64tofp.obj
 0001:001173c0       __dtoi64                   101183c0 f   MSVCRTD:fptoi64.obj
 0001:001174bc       __dtou64                   101184bc f   MSVCRTD:fptoi64.obj
 0001:001175a8       __stoi64                   101185a8 f   MSVCRTD:fptoi64.obj
 0001:001176a0       __stou64                   101186a0 f   MSVCRTD:fptoi64.obj
 0001:00117788       __fptoi64_exception_helper 10118788 f   MSVCRTD:fptoi64.obj
 0001:001177b4       floor                      101187b4 f   MSVCRTD:MSVCR110D.dll
 0001:001177c0       sqrt                       101187c0 f   MSVCRTD:MSVCR110D.dll
 0001:001177cc       sin                        101187cc f   MSVCRTD:MSVCR110D.dll
 0001:001177d8       cos                        101187d8 f   MSVCRTD:MSVCR110D.dll
 0001:001177e4       __rt_udiv                  101187e4 f   MSVCRTD:divide.obj
 0001:0011794c       __rt_sdiv                  1011894c f   MSVCRTD:divide.obj
 0001:00117ad0       __rt_udiv64                10118ad0 f   MSVCRTD:divide.obj
 0001:00117b70       __rt_sdiv64                10118b70 f   MSVCRTD:divide.obj
 0001:00117c3c       ceil                       10118c3c f   MSVCRTD:MSVCR110D.dll
 0001:00117c48       __security_push_cookie     10118c48 f   MSVCRTD:secpushpop.obj
 0001:00117c60       __security_pop_cookie      10118c60 f   MSVCRTD:secpushpop.obj
 0001:00117c7c       __ppgsfailure              10118c7c f   MSVCRTD:secpushpop.obj
 0001:00117c94       __GSHandlerCheck           10118c94 f   MSVCRTD:gshandler.obj
 0001:00117cbc       __GSHandlerCheckCommon     10118cbc f   MSVCRTD:gshandler.obj
 0001:00117d04       _CxxThrowException         10118d04 f   MSVCRTD:MSVCR110D.dll
 0001:00117d10       memmove                    10118d10 f   MSVCRTD:MSVCR110D.dll
 0001:00117d1c       __chkstk                   10118d1c f   MSVCRTD:chkstk.obj
 0001:00117d1c       _alloca_probe              10118d1c     MSVCRTD:chkstk.obj
 0001:00117d38       __chkstk_probe             10118d38 f   MSVCRTD:chkstk.obj
 0001:00117d54       printf                     10118d54 f   MSVCRTD:MSVCR110D.dll
 0001:00117d60       __GSHandlerCheck_EH        10118d60 f   MSVCRTD:gshandlereh.obj
 0001:00117d9c       memchr                     10118d9c f   MSVCRTD:MSVCR110D.dll
 0001:00117da8       memcmp                     10118da8 f   MSVCRTD:MSVCR110D.dll
 0001:00117db4       getenv                     10118db4 f   MSVCRTD:MSVCR110D.dll
 0001:00117dc0       strncpy                    10118dc0 f   MSVCRTD:MSVCR110D.dll
 0001:00117dcc       strcat                     10118dcc f   MSVCRTD:MSVCR110D.dll
 0001:00117dd8       __report_gsfailure         10118dd8 f   MSVCRTD:gs_report.obj
 0001:00117de0       __report_securityfailureEx 10118de0 f   MSVCRTD:gs_report.obj
 0001:00117de8       __report_securityfailure   10118de8 f   MSVCRTD:gs_report.obj
 0001:00117df0       __report_rangecheckfailure 10118df0 f   MSVCRTD:gs_report.obj
 0001:00117e00       vprintf                    10118e00 f   MSVCRTD:MSVCR110D.dll
 0001:00117e0c       sprintf                    10118e0c f   MSVCRTD:MSVCR110D.dll
 0001:00117e18       __C_specific_handler       10118e18 f   MSVCRTD:MSVCR110D.dll
 0001:00117e24       exit                       10118e24 f   MSVCRTD:MSVCR110D.dll
 0001:00117e30       puts                       10118e30 f   MSVCRTD:MSVCR110D.dll
 0001:00117e3c       ??_U@YAPAXI@Z              10118e3c f   MSVCRTD:MSVCR110D.dll
 0001:00117e48       ??_V@YAXPAX@Z              10118e48 f   MSVCRTD:MSVCR110D.dll
 0001:00117e54       fopen                      10118e54 f   MSVCRTD:MSVCR110D.dll
 0001:00117e60       fprintf                    10118e60 f   MSVCRTD:MSVCR110D.dll
 0001:00117e6c       fclose                     10118e6c f   MSVCRTD:MSVCR110D.dll
 0001:00117e78       fgets                      10118e78 f   MSVCRTD:MSVCR110D.dll
 0001:00117e84       _CrtDbgReportW             10118e84 f   MSVCRTD:MSVCR110D.dll
 0001:00117e90       _invalid_parameter         10118e90 f   MSVCRTD:MSVCR110D.dll
 0001:00117e9c       sscanf                     10118e9c f   MSVCRTD:MSVCR110D.dll
 0001:00117ea8       __RTDynamicCast            10118ea8 f   MSVCRTD:MSVCR110D.dll
 0001:00117eb4       _snprintf                  10118eb4 f   MSVCRTD:MSVCR110D.dll
 0001:00117ec0       fputs                      10118ec0 f   MSVCRTD:MSVCR110D.dll
 0001:00117ecc       _strnicmp                  10118ecc f   MSVCRTD:MSVCR110D.dll
 0001:00117ed8       atoi                       10118ed8 f   MSVCRTD:MSVCR110D.dll
 0001:00117ee4       strncmp                    10118ee4 f   MSVCRTD:MSVCR110D.dll
 0001:00117ef0       strrchr                    10118ef0 f   MSVCRTD:MSVCR110D.dll
 0001:00117efc       ??0bad_cast@std@@QAA@PBD@Z 10118efc f   MSVCRTD:MSVCR110D.dll
 0001:00117f08       ??1bad_cast@std@@UAA@XZ    10118f08 f   MSVCRTD:MSVCR110D.dll
 0001:00117f14       ??0bad_cast@std@@QAA@ABV01@@Z 10118f14 f   MSVCRTD:MSVCR110D.dll
 0001:00117f20       ??0exception@std@@QAA@ABV01@@Z 10118f20 f   MSVCRTD:MSVCR110D.dll
 0001:00117f2c       _lock_file                 10118f2c f   MSVCRTD:MSVCR110D.dll
 0001:00117f38       _unlock_file               10118f38 f   MSVCRTD:MSVCR110D.dll
 0001:00117f44       fwrite                     10118f44 f   MSVCRTD:MSVCR110D.dll
 0001:00117f50       fgetc                      10118f50 f   MSVCRTD:MSVCR110D.dll
 0001:00117f5c       ungetc                     10118f5c f   MSVCRTD:MSVCR110D.dll
 0001:00117f68       memcpy_s                   10118f68 f   MSVCRTD:MSVCR110D.dll
 0001:00117f74       _fseeki64                  10118f74 f   MSVCRTD:MSVCR110D.dll
 0001:00117f80       fgetpos                    10118f80 f   MSVCRTD:MSVCR110D.dll
 0001:00117f8c       fsetpos                    10118f8c f   MSVCRTD:MSVCR110D.dll
 0001:00117f98       setvbuf                    10118f98 f   MSVCRTD:MSVCR110D.dll
 0001:00117fa4       fflush                     10118fa4 f   MSVCRTD:MSVCR110D.dll
 0001:00117fb0       fputc                      10118fb0 f   MSVCRTD:MSVCR110D.dll
 0001:00117fbc       toupper                    10118fbc f   MSVCRTD:MSVCR110D.dll
 0001:00117fc8       tolower                    10118fc8 f   MSVCRTD:MSVCR110D.dll
 0001:00117fd4       isspace                    10118fd4 f   MSVCRTD:MSVCR110D.dll
 0001:00117fe0       vsprintf                   10118fe0 f   MSVCRTD:MSVCR110D.dll
 0001:00117fec       strchr                     10118fec f   MSVCRTD:MSVCR110D.dll
 0001:00118078       _CRT_INIT                  10119078 f   MSVCRTD:crtdll.obj
 0001:00118370       _DllMainCRTStartup         10119370 f   MSVCRTD:crtdll.obj
 0001:001183a0       NtCurrentTeb               101193a0 f i MSVCRTD:crtdll.obj
 0001:0011850c       _CRT_RTC_INITW             1011950c f   MSVCRTD:MSVCR110D.dll
 0001:00118520       _RTC_NumErrors             10119520 f   MSVCRTD:userapi.obj
 0001:00118524       _RTC_GetErrDesc            10119524 f   MSVCRTD:userapi.obj
 0001:0011853c       _RTC_SetErrorType          1011953c f   MSVCRTD:userapi.obj
 0001:0011855c       _RTC_SetErrorFunc          1011955c f   MSVCRTD:userapi.obj
 0001:00118570       _RTC_SetErrorFuncW         10119570 f   MSVCRTD:userapi.obj
 0001:001185a0       ?_RTC_GetErrorFunc@@YAP6AHHPBDH00ZZPBX@Z 101195a0 f   MSVCRTD:userapi.obj
 0001:001185c0       ?_RTC_GetErrorFuncW@@YAP6AHHPB_WH00ZZPBX@Z 101195c0 f   MSVCRTD:userapi.obj
 0001:001185cc       _calloc_dbg                101195cc f   MSVCRTD:MSVCR110D.dll
 0001:001185d8       _lock                      101195d8 f   MSVCRTD:MSVCR110D.dll
 0001:001185e4       __dllonexit                101195e4 f   MSVCRTD:MSVCR110D.dll
 0001:001185f0       _unlock                    101195f0 f   MSVCRTD:MSVCR110D.dll
 0001:001185fc       ??1type_info@@UAA@XZ       101195fc f   MSVCRTD:MSVCR110D.dll
 0001:00118608       ??_M@YAXPAXIHP6AX0@Z@Z     10119608 f   MSVCRTD:ehvecdtr.obj
 0001:00118670       ?__ArrayUnwind@@YAXPAXIHP6AX0@Z@Z 10119670 f   MSVCRTD:ehvecdtr.obj
 0001:001186f0       ?_RTC_GetSrcLine@@YAHPAEPA_WKPAH1K@Z 101196f0 f   MSVCRTD:pdblkup.obj
 0001:00118c8c       __fphelper_raise_exception 10119c8c f   MSVCRTD:helpexcept.obj
 0001:001190e8       __helper_divide_by_0       1011a0e8 f   MSVCRTD:helpexcept.obj
 0001:00119110       __security_check_cookie    1011a110 f   MSVCRTD:armsecgs.obj
 0001:00119124       __gsfailure                1011a124 f   MSVCRTD:armsecgs.obj
 0001:00119150       _malloc_dbg                1011a150 f   MSVCRTD:MSVCR110D.dll
 0001:0011915c       _RTC_Initialize            1011a15c f   MSVCRTD:initsect.obj
 0001:0011918c       _RTC_Terminate             1011a18c f   MSVCRTD:initsect.obj
 0001:001191bc       __clean_type_info_names    1011a1bc f   MSVCRTD:tncleanup.obj
 0001:001191d0       _amsg_exit                 1011a1d0 f   MSVCRTD:MSVCR110D.dll
 0001:001191dc       _initterm_e                1011a1dc f   MSVCRTD:MSVCR110D.dll
 0001:001191e8       _initterm                  1011a1e8 f   MSVCRTD:MSVCR110D.dll
 0001:001191f4       _ValidateImageBase         1011a1f4 f   MSVCRTD:pesect.obj
 0001:00119250       _FindPESection             1011a250 f   MSVCRTD:pesect.obj
 0001:001192c4       _IsNonwritableInCurrentImage 1011a2c4 f   MSVCRTD:pesect.obj
 0001:00119378       _CrtSetCheckCount          1011a378 f   MSVCRTD:MSVCR110D.dll
 0001:00119384       _free_dbg                  1011a384 f   MSVCRTD:MSVCR110D.dll
 0001:00119390       __security_init_cookie     1011a390 f   MSVCRTD:gs_support.obj
 0001:00119460       __CppXcptFilter            1011a460 f   MSVCRTD:MSVCR110D.dll
 0001:0011946c       ?terminate@@YAXXZ          1011a46c f   MSVCRTD:MSVCR110D.dll
 0001:00119478       _wsplitpath_s              1011a478 f   MSVCRTD:MSVCR110D.dll
 0001:00119484       wcscpy_s                   1011a484 f   MSVCRTD:MSVCR110D.dll
 0001:00119490       _wmakepath_s               1011a490 f   MSVCRTD:MSVCR110D.dll
 0001:0011949c       __clean_type_info_names_internal 1011a49c f   MSVCRTD:MSVCR110D.dll
 0001:001194a8       ??0id@locale@std@@QAA@I@Z  1011a4a8 f   msvcprtd:MSVCP110D.dll
 0001:001194b4       ?_Syserror_map@std@@YAPBDH@Z 1011a4b4 f   msvcprtd:MSVCP110D.dll
 0001:001194c0       ?_Winerror_map@std@@YAPBDH@Z 1011a4c0 f   msvcprtd:MSVCP110D.dll
 0001:001194cc       ??0_Container_base12@std@@QAA@XZ 1011a4cc f   msvcprtd:MSVCP110D.dll
 0001:001194d8       ??1_Container_base12@std@@QAA@XZ 1011a4d8 f   msvcprtd:MSVCP110D.dll
 0001:001194e4       ?_Debug_message@std@@YAXPB_W0I@Z 1011a4e4 f   msvcprtd:MSVCP110D.dll
 0001:001194f0       ?_Orphan_all@_Container_base12@std@@QAAXXZ 1011a4f0 f   msvcprtd:MSVCP110D.dll
 0001:001194fc       ?_Xbad_alloc@std@@YAXXZ    1011a4fc f   msvcprtd:MSVCP110D.dll
 0001:00119508       ?_Xout_of_range@std@@YAXPBD@Z 1011a508 f   msvcprtd:MSVCP110D.dll
 0001:00119514       ?_Xlength_error@std@@YAXPBD@Z 1011a514 f   msvcprtd:MSVCP110D.dll
 0001:00119520       ??5?$basic_istream@DU?$char_traits@D@std@@@std@@QAAAAV01@AAH@Z 1011a520 f   msvcprtd:MSVCP110D.dll
 0001:0011952c       ??0?$basic_ios@DU?$char_traits@D@std@@@std@@IAA@XZ 1011a52c f   msvcprtd:MSVCP110D.dll
 0001:00119538       ??0?$basic_istream@DU?$char_traits@D@std@@@std@@QAA@PAV?$basic_streambuf@DU?$char_traits@D@std@@@1@_N@Z 1011a538 f   msvcprtd:MSVCP110D.dll
 0001:00119544       ?_Add_vtordisp2@?$basic_ios@DU?$char_traits@D@std@@@std@@UAAXXZ 1011a544 f   msvcprtd:MSVCP110D.dll
 0001:00119550       ??1?$basic_ios@DU?$char_traits@D@std@@@std@@UAA@XZ 1011a550 f   msvcprtd:MSVCP110D.dll
 0001:0011955c       ??1?$basic_istream@DU?$char_traits@D@std@@@std@@UAA@XZ 1011a55c f   msvcprtd:MSVCP110D.dll
 0001:00119568       ?_Add_vtordisp1@?$basic_istream@DU?$char_traits@D@std@@@std@@UAAXXZ 1011a568 f   msvcprtd:MSVCP110D.dll
 0001:00119574       ??0?$basic_streambuf@DU?$char_traits@D@std@@@std@@IAA@XZ 1011a574 f   msvcprtd:MSVCP110D.dll
 0001:00119580       ?_Lock@?$basic_streambuf@DU?$char_traits@D@std@@@std@@UAAXXZ 1011a580 f   msvcprtd:MSVCP110D.dll
 0001:0011958c       ?_Unlock@?$basic_streambuf@DU?$char_traits@D@std@@@std@@UAAXXZ 1011a58c f   msvcprtd:MSVCP110D.dll
 0001:00119598       ?showmanyc@?$basic_streambuf@DU?$char_traits@D@std@@@std@@MAA_JXZ 1011a598 f   msvcprtd:MSVCP110D.dll
 0001:001195a4       ?uflow@?$basic_streambuf@DU?$char_traits@D@std@@@std@@MAAHXZ 1011a5a4 f   msvcprtd:MSVCP110D.dll
 0001:001195b0       ?xsgetn@?$basic_streambuf@DU?$char_traits@D@std@@@std@@MAA_JPAD_J@Z 1011a5b0 f   msvcprtd:MSVCP110D.dll
 0001:001195bc       ?xsputn@?$basic_streambuf@DU?$char_traits@D@std@@@std@@MAA_JPBD_J@Z 1011a5bc f   msvcprtd:MSVCP110D.dll
 0001:001195c8       ?setbuf@?$basic_streambuf@DU?$char_traits@D@std@@@std@@MAAPAV12@PAD_J@Z 1011a5c8 f   msvcprtd:MSVCP110D.dll
 0001:001195d4       ?sync@?$basic_streambuf@DU?$char_traits@D@std@@@std@@MAAHXZ 1011a5d4 f   msvcprtd:MSVCP110D.dll
 0001:001195e0       ?imbue@?$basic_streambuf@DU?$char_traits@D@std@@@std@@MAAXABVlocale@2@@Z 1011a5e0 f   msvcprtd:MSVCP110D.dll
 0001:001195ec       ??1?$basic_streambuf@DU?$char_traits@D@std@@@std@@UAA@XZ 1011a5ec f   msvcprtd:MSVCP110D.dll
 0001:001195f8       ?pptr@?$basic_streambuf@DU?$char_traits@D@std@@@std@@IBAPADXZ 1011a5f8 f   msvcprtd:MSVCP110D.dll
 0001:00119604       ?epptr@?$basic_streambuf@DU?$char_traits@D@std@@@std@@IBAPADXZ 1011a604 f   msvcprtd:MSVCP110D.dll
 0001:00119610       ?pbase@?$basic_streambuf@DU?$char_traits@D@std@@@std@@IBAPADXZ 1011a610 f   msvcprtd:MSVCP110D.dll
 0001:0011961c       ?setp@?$basic_streambuf@DU?$char_traits@D@std@@@std@@IAAXPAD00@Z 1011a61c f   msvcprtd:MSVCP110D.dll
 0001:00119628       ?_Pninc@?$basic_streambuf@DU?$char_traits@D@std@@@std@@IAAPADXZ 1011a628 f   msvcprtd:MSVCP110D.dll
 0001:00119634       ?eback@?$basic_streambuf@DU?$char_traits@D@std@@@std@@IBAPADXZ 1011a634 f   msvcprtd:MSVCP110D.dll
 0001:00119640       ?setp@?$basic_streambuf@DU?$char_traits@D@std@@@std@@IAAXPAD0@Z 1011a640 f   msvcprtd:MSVCP110D.dll
 0001:0011964c       ?setg@?$basic_streambuf@DU?$char_traits@D@std@@@std@@IAAXPAD00@Z 1011a64c f   msvcprtd:MSVCP110D.dll
 0001:00119658       ?gptr@?$basic_streambuf@DU?$char_traits@D@std@@@std@@IBAPADXZ 1011a658 f   msvcprtd:MSVCP110D.dll
 0001:00119664       ?gbump@?$basic_streambuf@DU?$char_traits@D@std@@@std@@IAAXH@Z 1011a664 f   msvcprtd:MSVCP110D.dll
 0001:00119670       ?egptr@?$basic_streambuf@DU?$char_traits@D@std@@@std@@IBAPADXZ 1011a670 f   msvcprtd:MSVCP110D.dll
 0001:0011967c       ?pbump@?$basic_streambuf@DU?$char_traits@D@std@@@std@@IAAXH@Z 1011a67c f   msvcprtd:MSVCP110D.dll
 0001:00119688       ??0_Lockit@std@@QAA@H@Z    1011a688 f   msvcprtd:MSVCP110D.dll
 0001:00119694       ?_Getpfirst@_Container_base12@std@@QBAPAPAU_Iterator_base12@2@XZ 1011a694 f   msvcprtd:MSVCP110D.dll
 0001:001196a0       ??1_Lockit@std@@QAA@XZ     1011a6a0 f   msvcprtd:MSVCP110D.dll
 0001:001196ac       ?flags@ios_base@std@@QAAHH@Z 1011a6ac f   msvcprtd:MSVCP110D.dll
 0001:001196b8       ??5?$basic_istream@DU?$char_traits@D@std@@@std@@QAAAAV01@AAN@Z 1011a6b8 f   msvcprtd:MSVCP110D.dll
 0001:001196c4       ??6?$basic_ostream@DU?$char_traits@D@std@@@std@@QAAAAV01@H@Z 1011a6c4 f   msvcprtd:MSVCP110D.dll
 0001:001196d0       ??6?$basic_ostream@DU?$char_traits@D@std@@@std@@QAAAAV01@P6AAAVios_base@1@AAV21@@Z@Z 1011a6d0 f   msvcprtd:MSVCP110D.dll
 0001:001196dc       ??6?$basic_ostream@DU?$char_traits@D@std@@@std@@QAAAAV01@_N@Z 1011a6dc f   msvcprtd:MSVCP110D.dll
 0001:001196e8       ?precision@ios_base@std@@QAA_J_J@Z 1011a6e8 f   msvcprtd:MSVCP110D.dll
 0001:001196f4       ??6?$basic_ostream@DU?$char_traits@D@std@@@std@@QAAAAV01@N@Z 1011a6f4 f   msvcprtd:MSVCP110D.dll
 0001:00119700       ??7ios_base@std@@QBA_NXZ   1011a700 f   msvcprtd:MSVCP110D.dll
 0001:0011970c       ??Bios_base@std@@QBAPAXXZ  1011a70c f   msvcprtd:MSVCP110D.dll
 0001:00119718       ??0?$basic_ostream@DU?$char_traits@D@std@@@std@@QAA@PAV?$basic_streambuf@DU?$char_traits@D@std@@@1@_N@Z 1011a718 f   msvcprtd:MSVCP110D.dll
 0001:00119724       ?_Add_vtordisp1@?$basic_ios@DU?$char_traits@D@std@@@std@@UAAXXZ 1011a724 f   msvcprtd:MSVCP110D.dll
 0001:00119730       ??1?$basic_ostream@DU?$char_traits@D@std@@@std@@UAA@XZ 1011a730 f   msvcprtd:MSVCP110D.dll
 0001:0011973c       ?setf@ios_base@std@@QAAHH@Z 1011a73c f   msvcprtd:MSVCP110D.dll
 0001:00119748       ?width@ios_base@std@@QBA_JXZ 1011a748 f   msvcprtd:MSVCP110D.dll
 0001:00119754       ?flags@ios_base@std@@QBAHXZ 1011a754 f   msvcprtd:MSVCP110D.dll
 0001:00119760       ?fill@?$basic_ios@DU?$char_traits@D@std@@@std@@QBADXZ 1011a760 f   msvcprtd:MSVCP110D.dll
 0001:0011976c       ?rdbuf@?$basic_ios@DU?$char_traits@D@std@@@std@@QBAPAV?$basic_streambuf@DU?$char_traits@D@std@@@2@XZ 1011a76c f   msvcprtd:MSVCP110D.dll
 0001:00119778       ?sputc@?$basic_streambuf@DU?$char_traits@D@std@@@std@@QAAHD@Z 1011a778 f   msvcprtd:MSVCP110D.dll
 0001:00119784       ?sputn@?$basic_streambuf@DU?$char_traits@D@std@@@std@@QAA_JPBD_J@Z 1011a784 f   msvcprtd:MSVCP110D.dll
 0001:00119790       ?width@ios_base@std@@QAA_J_J@Z 1011a790 f   msvcprtd:MSVCP110D.dll
 0001:0011979c       ?setstate@?$basic_ios@DU?$char_traits@D@std@@@std@@QAAXH_N@Z 1011a79c f   msvcprtd:MSVCP110D.dll
 0001:001197a8       ?setf@ios_base@std@@QAAHHH@Z 1011a7a8 f   msvcprtd:MSVCP110D.dll
 0001:001197b4       ?widen@?$basic_ios@DU?$char_traits@D@std@@@std@@QBADD@Z 1011a7b4 f   msvcprtd:MSVCP110D.dll
 0001:001197c0       ?getloc@ios_base@std@@QBA?AVlocale@2@XZ 1011a7c0 f   msvcprtd:MSVCP110D.dll
 0001:001197cc       ?sgetc@?$basic_streambuf@DU?$char_traits@D@std@@@std@@QAAHXZ 1011a7cc f   msvcprtd:MSVCP110D.dll
 0001:001197d8       ?snextc@?$basic_streambuf@DU?$char_traits@D@std@@@std@@QAAHXZ 1011a7d8 f   msvcprtd:MSVCP110D.dll
 0001:001197e4       ?is@?$ctype@D@std@@QBA_NFD@Z 1011a7e4 f   msvcprtd:MSVCP110D.dll
 0001:001197f0       ?_Add_vtordisp2@?$basic_ostream@DU?$char_traits@D@std@@@std@@UAAXXZ 1011a7f0 f   msvcprtd:MSVCP110D.dll
 0001:001197fc       ?good@ios_base@std@@QBA_NXZ 1011a7fc f   msvcprtd:MSVCP110D.dll
 0001:00119808       ?tie@?$basic_ios@DU?$char_traits@D@std@@@std@@QBAPAV?$basic_ostream@DU?$char_traits@D@std@@@2@XZ 1011a808 f   msvcprtd:MSVCP110D.dll
 0001:00119814       ?flush@?$basic_ostream@DU?$char_traits@D@std@@@std@@QAAAAV12@XZ 1011a814 f   msvcprtd:MSVCP110D.dll
 0001:00119820       ?uncaught_exception@std@@YA_NXZ 1011a820 f   msvcprtd:MSVCP110D.dll
 0001:0011982c       ?_Osfx@?$basic_ostream@DU?$char_traits@D@std@@@std@@QAAXXZ 1011a82c f   msvcprtd:MSVCP110D.dll
 0001:00119838       ?_Fiopen@std@@YAPAU_iobuf@@PBDHH@Z 1011a838 f   msvcprtd:MSVCP110D.dll
 0001:00119844       ?getloc@?$basic_streambuf@DU?$char_traits@D@std@@@std@@QBA?AVlocale@2@XZ 1011a844 f   msvcprtd:MSVCP110D.dll
 0001:00119850       ?sbumpc@?$basic_streambuf@DU?$char_traits@D@std@@@std@@QAAHXZ 1011a850 f   msvcprtd:MSVCP110D.dll
 0001:0011985c       ?_Ipfx@?$basic_istream@DU?$char_traits@D@std@@@std@@QAA_N_N@Z 1011a85c f   msvcprtd:MSVCP110D.dll
 0001:00119868       ??Bid@locale@std@@QAAIXZ   1011a868 f   msvcprtd:MSVCP110D.dll
 0001:00119874       ?_Getcat@?$ctype@D@std@@SAIPAPBVfacet@locale@2@PBV42@@Z 1011a874 f   msvcprtd:MSVCP110D.dll
 0001:00119880       ?_Facet_Register@std@@YAXPAV_Facet_base@1@@Z 1011a880 f   msvcprtd:locale0_implib.obj
 0001:00119910       ??0_Fac_node@std@@QAA@PAU01@PAV_Facet_base@1@@Z 1011a910 f i msvcprtd:locale0_implib.obj
 0001:0011992c       ??1_Fac_tidy_reg_t@std@@QAA@XZ 1011a92c f i msvcprtd:locale0_implib.obj
 0001:00119964       ??$_DebugHeapDelete@U_Fac_node@std@@@std@@YAXPAU_Fac_node@0@@Z 1011a964 f i msvcprtd:locale0_implib.obj
 0001:00119990       ??_G_Fac_node@std@@QAAPAXI@Z 1011a990 f i msvcprtd:locale0_implib.obj
 0001:001199c0       ??1_Fac_node@std@@QAA@XZ   1011a9c0 f i msvcprtd:locale0_implib.obj
 0001:001199f0       ?out@?$codecvt@DDH@std@@QBAHAAHPBD1AAPBDPAD3AAPAD@Z 1011a9f0 f   msvcprtd:MSVCP110D.dll
 0001:001199fc       ?_Gndec@?$basic_streambuf@DU?$char_traits@D@std@@@std@@IAAPADXZ 1011a9fc f   msvcprtd:MSVCP110D.dll
 0001:00119a08       ?_Gninc@?$basic_streambuf@DU?$char_traits@D@std@@@std@@IAAPADXZ 1011aa08 f   msvcprtd:MSVCP110D.dll
 0001:00119a14       ?in@?$codecvt@DDH@std@@QBAHAAHPBD1AAPBDPAD3AAPAD@Z 1011aa14 f   msvcprtd:MSVCP110D.dll
 0001:00119a20       ?_Init@?$basic_streambuf@DU?$char_traits@D@std@@@std@@IAAXXZ 1011aa20 f   msvcprtd:MSVCP110D.dll
 0001:00119a2c       ?_Init@?$basic_streambuf@DU?$char_traits@D@std@@@std@@IAAXPAPAD0PAH001@Z 1011aa2c f   msvcprtd:MSVCP110D.dll
 0001:00119a38       ?_Getcat@?$codecvt@DDH@std@@SAIPAPBVfacet@locale@2@PBV42@@Z 1011aa38 f   msvcprtd:MSVCP110D.dll
 0001:00119a44       ?always_noconv@codecvt_base@std@@QBA_NXZ 1011aa44 f   msvcprtd:MSVCP110D.dll
 0001:00119a50       ?_Getgloballocale@locale@std@@CAPAV_Locimp@12@XZ 1011aa50 f   msvcprtd:MSVCP110D.dll
 0001:00119a5c       ?unshift@?$codecvt@DDH@std@@QBAHAAHPAD1AAPAD@Z 1011aa5c f   msvcprtd:MSVCP110D.dll
 0001:00119a68       ?_DebugHeapTag_func@std@@YAABU_DebugHeapTag_t@1@XZ 1011aa68 f   msvcprtd:MSVCP110D.dll
 0001:00119a74       ??2@YAPAXIABU_DebugHeapTag_t@std@@PADH@Z 1011aa74 f   msvcprtd:MSVCP110D.dll
 0001:00119a80       ??3@YAXPAXABU_DebugHeapTag_t@std@@PADH@Z 1011aa80 f   msvcprtd:MSVCP110D.dll
 0001:00119a8c       EncodePointer              1011aa8c f   kernel32:KERNEL32.dll
 0001:00119a98       DecodePointer              1011aa98 f   kernel32:KERNEL32.dll
 0001:00119aa4       LoadLibraryExW             1011aaa4 f   kernel32:KERNEL32.dll
 0001:00119ab0       lstrlenA                   1011aab0 f   kernel32:KERNEL32.dll
 0001:00119abc       MultiByteToWideChar        1011aabc f   kernel32:KERNEL32.dll
 0001:00119ac8       IsDebuggerPresent          1011aac8 f   kernel32:KERNEL32.dll
 0001:00119ad4       WideCharToMultiByte        1011aad4 f   kernel32:KERNEL32.dll
 0001:00119ae0       RaiseException             1011aae0 f   kernel32:KERNEL32.dll
 0001:00119aec       VirtualQuery               1011aaec f   kernel32:KERNEL32.dll
 0001:00119af8       GetModuleFileNameW         1011aaf8 f   kernel32:KERNEL32.dll
 0001:00119b04       HeapAlloc                  1011ab04 f   kernel32:KERNEL32.dll
 0001:00119b10       GetProcessHeap             1011ab10 f   kernel32:KERNEL32.dll
 0001:00119b1c       HeapFree                   1011ab1c f   kernel32:KERNEL32.dll
 0001:00119b28       GetModuleHandleW           1011ab28 f   kernel32:KERNEL32.dll
 0001:00119b34       LoadLibraryW               1011ab34 f   kernel32:KERNEL32.dll
 0001:00119b40       FreeLibrary                1011ab40 f   kernel32:KERNEL32.dll
 0001:00119b4c       GetSystemTimeAsFileTime    1011ab4c f   kernel32:KERNEL32.dll
 0001:00119b58       GetCurrentThreadId         1011ab58 f   kernel32:KERNEL32.dll
 0001:00119b64       GetCurrentProcessId        1011ab64 f   kernel32:KERNEL32.dll
 0001:00119b70       GetTickCount64             1011ab70 f   kernel32:KERNEL32.dll
 0001:00119b7c       QueryPerformanceCounter    1011ab7c f   kernel32:KERNEL32.dll
 0001:00119b88       _mkdir                     1011ab88 f   MSVCRTD:MSVCR110D.dll
 0001:00119b94       _access                    1011ab94 f   MSVCRTD:MSVCR110D.dll
 0001:00119ba0       _stricmp                   1011aba0 f   MSVCRTD:MSVCR110D.dll
 0002:00000000       __xc_a                     10135000     MSVCRTD:cinitexe.obj
 0002:000003d0       __xc_z                     101353d0     MSVCRTD:cinitexe.obj
 0002:000004d4       __xi_a                     101354d4     MSVCRTD:cinitexe.obj
 0002:000007e0       __xi_z                     101357e0     MSVCRTD:cinitexe.obj
 0002:00000b16       ?is_integer@_Num_int_base@std@@2_NB 10135b16     core_dynrec.obj
 0002:00000b17       ?is_modulo@_Num_int_base@std@@2_NB 10135b17     core_dynrec.obj
 0002:00000b18       ?is_specialized@_Num_int_base@std@@2_NB 10135b18     core_dynrec.obj
 0002:00000b1c       ?radix@_Num_int_base@std@@2HB 10135b1c     core_dynrec.obj
 0002:00000b20       ?has_denorm@_Num_float_base@std@@2W4float_denorm_style@2@B 10135b20     core_dynrec.obj
 0002:00000b24       ?has_denorm_loss@_Num_float_base@std@@2_NB 10135b24     core_dynrec.obj
 0002:00000b25       ?has_infinity@_Num_float_base@std@@2_NB 10135b25     core_dynrec.obj
 0002:00000b26       ?has_quiet_NaN@_Num_float_base@std@@2_NB 10135b26     core_dynrec.obj
 0002:00000b27       ?has_signaling_NaN@_Num_float_base@std@@2_NB 10135b27     core_dynrec.obj
 0002:00000b28       ?is_bounded@_Num_float_base@std@@2_NB 10135b28     core_dynrec.obj
 0002:00000b29       ?is_exact@_Num_float_base@std@@2_NB 10135b29     core_dynrec.obj
 0002:00000b2a       ?is_iec559@_Num_float_base@std@@2_NB 10135b2a     core_dynrec.obj
 0002:00000b2b       ?is_integer@_Num_float_base@std@@2_NB 10135b2b     core_dynrec.obj
 0002:00000b2c       ?is_modulo@_Num_float_base@std@@2_NB 10135b2c     core_dynrec.obj
 0002:00000b2d       ?is_signed@_Num_float_base@std@@2_NB 10135b2d     core_dynrec.obj
 0002:00000b2e       ?is_specialized@_Num_float_base@std@@2_NB 10135b2e     core_dynrec.obj
 0002:00000b2f       ?tinyness_before@_Num_float_base@std@@2_NB 10135b2f     core_dynrec.obj
 0002:00000b30       ?traps@_Num_float_base@std@@2_NB 10135b30     core_dynrec.obj
 0002:00000b34       ?round_style@_Num_float_base@std@@2W4float_round_style@2@B 10135b34     core_dynrec.obj
 0002:00001934       ?radix@_Num_float_base@std@@2HB 10136934     core_dynrec.obj
 0002:00001938       ?is_signed@?$numeric_limits@D@std@@2_NB 10136938     core_dynrec.obj
 0002:0000193c       ?digits@?$numeric_limits@D@std@@2HB 1013693c     core_dynrec.obj
 0002:00001940       ?digits10@?$numeric_limits@D@std@@2HB 10136940     core_dynrec.obj
 0002:00001944       ?is_signed@?$numeric_limits@_W@std@@2_NB 10136944     core_dynrec.obj
 0002:00001948       ?digits@?$numeric_limits@_W@std@@2HB 10136948     core_dynrec.obj
 0002:0000194c       ?digits10@?$numeric_limits@_W@std@@2HB 1013694c     core_dynrec.obj
 0002:00001950       ?is_modulo@?$numeric_limits@_N@std@@2_NB 10136950     core_dynrec.obj
 0002:00001951       ?is_signed@?$numeric_limits@_N@std@@2_NB 10136951     core_dynrec.obj
 0002:00001954       ?digits@?$numeric_limits@_N@std@@2HB 10136954     core_dynrec.obj
 0002:00001958       ?digits10@?$numeric_limits@_N@std@@2HB 10136958     core_dynrec.obj
 0002:0000195c       ?is_signed@?$numeric_limits@C@std@@2_NB 1013695c     core_dynrec.obj
 0002:00001960       ?digits@?$numeric_limits@C@std@@2HB 10136960     core_dynrec.obj
 0002:00001964       ?digits10@?$numeric_limits@C@std@@2HB 10136964     core_dynrec.obj
 0002:00001968       ?skipws@?$_Iosb@H@std@@2W4_Fmtflags@12@B 10136968     core_dynrec.obj
 0002:0000196c       ?unitbuf@?$_Iosb@H@std@@2W4_Fmtflags@12@B 1013696c     core_dynrec.obj
 0002:00001970       ?is_signed@?$numeric_limits@E@std@@2_NB 10136970     core_dynrec.obj
 0002:00001974       ?uppercase@?$_Iosb@H@std@@2W4_Fmtflags@12@B 10136974     core_dynrec.obj
 0002:00001978       ?digits@?$numeric_limits@E@std@@2HB 10136978     core_dynrec.obj
 0002:0000197c       ?showbase@?$_Iosb@H@std@@2W4_Fmtflags@12@B 1013697c     core_dynrec.obj
 0002:00001980       ?digits10@?$numeric_limits@E@std@@2HB 10136980     core_dynrec.obj
 0002:00001984       ?showpoint@?$_Iosb@H@std@@2W4_Fmtflags@12@B 10136984     core_dynrec.obj
 0002:00001988       ?showpos@?$_Iosb@H@std@@2W4_Fmtflags@12@B 10136988     core_dynrec.obj
 0002:0000198c       ?left@?$_Iosb@H@std@@2W4_Fmtflags@12@B 1013698c     core_dynrec.obj
 0002:00001990       ?right@?$_Iosb@H@std@@2W4_Fmtflags@12@B 10136990     core_dynrec.obj
 0002:00001994       ?internal@?$_Iosb@H@std@@2W4_Fmtflags@12@B 10136994     core_dynrec.obj
 0002:00001998       ?dec@?$_Iosb@H@std@@2W4_Fmtflags@12@B 10136998     core_dynrec.obj
 0002:0000199c       ?oct@?$_Iosb@H@std@@2W4_Fmtflags@12@B 1013699c     core_dynrec.obj
 0002:000019a0       ?hex@?$_Iosb@H@std@@2W4_Fmtflags@12@B 101369a0     core_dynrec.obj
 0002:000019a4       ?scientific@?$_Iosb@H@std@@2W4_Fmtflags@12@B 101369a4     core_dynrec.obj
 0002:000019a8       ?fixed@?$_Iosb@H@std@@2W4_Fmtflags@12@B 101369a8     core_dynrec.obj
 0002:000019ac       ?is_signed@?$numeric_limits@F@std@@2_NB 101369ac     core_dynrec.obj
 0002:000019b0       ?hexfloat@?$_Iosb@H@std@@2W4_Fmtflags@12@B 101369b0     core_dynrec.obj
 0002:000019b4       ?digits@?$numeric_limits@F@std@@2HB 101369b4     core_dynrec.obj
 0002:000019b8       ?boolalpha@?$_Iosb@H@std@@2W4_Fmtflags@12@B 101369b8     core_dynrec.obj
 0002:000019bc       ?digits10@?$numeric_limits@F@std@@2HB 101369bc     core_dynrec.obj
 0002:000019c0       ?_Stdio@?$_Iosb@H@std@@2W4_Fmtflags@12@B 101369c0     core_dynrec.obj
 0002:000019c4       ?adjustfield@?$_Iosb@H@std@@2W4_Fmtflags@12@B 101369c4     core_dynrec.obj
 0002:000019c8       ?basefield@?$_Iosb@H@std@@2W4_Fmtflags@12@B 101369c8     core_dynrec.obj
 0002:000019cc       ?floatfield@?$_Iosb@H@std@@2W4_Fmtflags@12@B 101369cc     core_dynrec.obj
 0002:000019d0       ?goodbit@?$_Iosb@H@std@@2W4_Iostate@12@B 101369d0     core_dynrec.obj
 0002:000019d4       ?eofbit@?$_Iosb@H@std@@2W4_Iostate@12@B 101369d4     core_dynrec.obj
 0002:000019d8       ?failbit@?$_Iosb@H@std@@2W4_Iostate@12@B 101369d8     core_dynrec.obj
 0002:000019dc       ?badbit@?$_Iosb@H@std@@2W4_Iostate@12@B 101369dc     core_dynrec.obj
 0002:000019e0       ?_Hardfail@?$_Iosb@H@std@@2W4_Iostate@12@B 101369e0     core_dynrec.obj
 0002:000019e4       ?is_signed@?$numeric_limits@G@std@@2_NB 101369e4     core_dynrec.obj
 0002:000019e8       ?in@?$_Iosb@H@std@@2W4_Openmode@12@B 101369e8     core_dynrec.obj
 0002:000019ec       ?out@?$_Iosb@H@std@@2W4_Openmode@12@B 101369ec     core_dynrec.obj
 0002:000019f0       ?digits@?$numeric_limits@G@std@@2HB 101369f0     core_dynrec.obj
 0002:000019f4       ?ate@?$_Iosb@H@std@@2W4_Openmode@12@B 101369f4     core_dynrec.obj
 0002:000019f8       ?digits10@?$numeric_limits@G@std@@2HB 101369f8     core_dynrec.obj
 0002:000019fc       ?value@?$_Sizeof@HU_Nil@std@@U12@U12@U12@U12@U12@U12@@std@@2IB 101369fc     core_dynrec.obj
 0002:00001a00       ?app@?$_Iosb@H@std@@2W4_Openmode@12@B 10136a00     core_dynrec.obj
 0002:00001a04       ?trunc@?$_Iosb@H@std@@2W4_Openmode@12@B 10136a04     core_dynrec.obj
 0002:00001a08       ?_Nocreate@?$_Iosb@H@std@@2W4_Openmode@12@B 10136a08     core_dynrec.obj
 0002:00001a0c       ?_Noreplace@?$_Iosb@H@std@@2W4_Openmode@12@B 10136a0c     core_dynrec.obj
 0002:00001a10       ?binary@?$_Iosb@H@std@@2W4_Openmode@12@B 10136a10     core_dynrec.obj
 0002:00001a14       ?beg@?$_Iosb@H@std@@2W4_Seekdir@12@B 10136a14     core_dynrec.obj
 0002:00001a18       ?cur@?$_Iosb@H@std@@2W4_Seekdir@12@B 10136a18     core_dynrec.obj
 0002:00001a1c       ?end@?$_Iosb@H@std@@2W4_Seekdir@12@B 10136a1c     core_dynrec.obj
 0002:00001a20       ?is_signed@?$numeric_limits@H@std@@2_NB 10136a20     core_dynrec.obj
 0002:00001a24       ?digits@?$numeric_limits@H@std@@2HB 10136a24     core_dynrec.obj
 0002:00001a28       ?digits10@?$numeric_limits@H@std@@2HB 10136a28     core_dynrec.obj
 0002:00001a2c       ?_Stream_err@failure@ios_base@std@@0W4io_errc@43@B 10136a2c     core_dynrec.obj
 0002:00001a30       ?is_signed@?$numeric_limits@I@std@@2_NB 10136a30     core_dynrec.obj
 0002:00001a34       ?digits@?$numeric_limits@I@std@@2HB 10136a34     core_dynrec.obj
 0002:00001a38       ?digits10@?$numeric_limits@I@std@@2HB 10136a38     core_dynrec.obj
 0002:00001a3c       ?collate@?$_Locbase@H@std@@2HB 10136a3c     core_dynrec.obj
 0002:00001a40       ?ctype@?$_Locbase@H@std@@2HB 10136a40     core_dynrec.obj
 0002:00001a44       ?monetary@?$_Locbase@H@std@@2HB 10136a44     core_dynrec.obj
 0002:00001a48       ?numeric@?$_Locbase@H@std@@2HB 10136a48     core_dynrec.obj
 0002:00001a4c       ?time@?$_Locbase@H@std@@2HB 10136a4c     core_dynrec.obj
 0002:00001a50       ?messages@?$_Locbase@H@std@@2HB 10136a50     core_dynrec.obj
 0002:00001a54       ?all@?$_Locbase@H@std@@2HB 10136a54     core_dynrec.obj
 0002:00001a58       ?none@?$_Locbase@H@std@@2HB 10136a58     core_dynrec.obj
 0002:00001a5c       ?is_signed@?$numeric_limits@J@std@@2_NB 10136a5c     core_dynrec.obj
 0002:00001a60       ?digits@?$numeric_limits@J@std@@2HB 10136a60     core_dynrec.obj
 0002:00001a64       ?digits10@?$numeric_limits@J@std@@2HB 10136a64     core_dynrec.obj
 0002:00001a68       ?is_signed@?$numeric_limits@K@std@@2_NB 10136a68     core_dynrec.obj
 0002:00001a6c       ?digits@?$numeric_limits@K@std@@2HB 10136a6c     core_dynrec.obj
 0002:00001a70       ?digits10@?$numeric_limits@K@std@@2HB 10136a70     core_dynrec.obj
 0002:00001a74       ?is_signed@?$numeric_limits@_J@std@@2_NB 10136a74     core_dynrec.obj
 0002:00001a78       ?digits@?$numeric_limits@_J@std@@2HB 10136a78     core_dynrec.obj
 0002:00001a7c       ?digits10@?$numeric_limits@_J@std@@2HB 10136a7c     core_dynrec.obj
 0002:00001a80       ?is_signed@?$numeric_limits@_K@std@@2_NB 10136a80     core_dynrec.obj
 0002:00001a84       ?digits@?$numeric_limits@_K@std@@2HB 10136a84     core_dynrec.obj
 0002:00001a88       ?digits10@?$numeric_limits@_K@std@@2HB 10136a88     core_dynrec.obj
 0002:00001a8c       ?digits@?$numeric_limits@M@std@@2HB 10136a8c     core_dynrec.obj
 0002:00001a90       ?digits10@?$numeric_limits@M@std@@2HB 10136a90     core_dynrec.obj
 0002:00001a94       ?max_digits10@?$numeric_limits@M@std@@2HB 10136a94     core_dynrec.obj
 0002:00001a98       ?max_exponent@?$numeric_limits@M@std@@2HB 10136a98     core_dynrec.obj
 0002:00001a9c       ?max_exponent10@?$numeric_limits@M@std@@2HB 10136a9c     core_dynrec.obj
 0002:00001aa0       ?min_exponent@?$numeric_limits@M@std@@2HB 10136aa0     core_dynrec.obj
 0002:00001aa4       ?value@?$integral_constant@I$0A@@std@@2IB 10136aa4     core_dynrec.obj
 0002:00001aa8       ?min_exponent10@?$numeric_limits@M@std@@2HB 10136aa8     core_dynrec.obj
 0002:00001aac       ?digits@?$numeric_limits@N@std@@2HB 10136aac     core_dynrec.obj
 0002:00001ab0       ?digits10@?$numeric_limits@N@std@@2HB 10136ab0     core_dynrec.obj
 0002:00001ab4       ?max_digits10@?$numeric_limits@N@std@@2HB 10136ab4     core_dynrec.obj
 0002:00001ab8       ?max_exponent@?$numeric_limits@N@std@@2HB 10136ab8     core_dynrec.obj
 0002:00001abc       ?max_exponent10@?$numeric_limits@N@std@@2HB 10136abc     core_dynrec.obj
 0002:00001ac0       ?min_exponent@?$numeric_limits@N@std@@2HB 10136ac0     core_dynrec.obj
 0002:00001ac4       ?min_exponent10@?$numeric_limits@N@std@@2HB 10136ac4     core_dynrec.obj
 0002:00001ac8       ?digits@?$numeric_limits@O@std@@2HB 10136ac8     core_dynrec.obj
 0002:00001acc       ?digits10@?$numeric_limits@O@std@@2HB 10136acc     core_dynrec.obj
 0002:00001ad0       ?max_digits10@?$numeric_limits@O@std@@2HB 10136ad0     core_dynrec.obj
 0002:00001ad4       ?max_exponent@?$numeric_limits@O@std@@2HB 10136ad4     core_dynrec.obj
 0002:00001ad8       ?max_exponent10@?$numeric_limits@O@std@@2HB 10136ad8     core_dynrec.obj
 0002:00001adc       ?min_exponent@?$numeric_limits@O@std@@2HB 10136adc     core_dynrec.obj
 0002:00001ae0       ?min_exponent10@?$numeric_limits@O@std@@2HB 10136ae0     core_dynrec.obj
 0002:00001ae4       ?value@?$integral_constant@_N$0A@@std@@2_NB 10136ae4     core_dynrec.obj
 0002:00001ae5       ?value@?$integral_constant@_N$00@std@@2_NB 10136ae5     core_dynrec.obj
 0002:00001ae8       ?has_denorm@_Num_base@std@@2W4float_denorm_style@2@B 10136ae8     core_dynrec.obj
 0002:00001aec       ?has_denorm_loss@_Num_base@std@@2_NB 10136aec     core_dynrec.obj
 0002:00001aed       ?has_infinity@_Num_base@std@@2_NB 10136aed     core_dynrec.obj
 0002:00001aee       ?has_quiet_NaN@_Num_base@std@@2_NB 10136aee     core_dynrec.obj
 0002:00001aef       ?has_signaling_NaN@_Num_base@std@@2_NB 10136aef     core_dynrec.obj
 0002:00001af0       ?is_bounded@_Num_base@std@@2_NB 10136af0     core_dynrec.obj
 0002:00001af1       ?is_exact@_Num_base@std@@2_NB 10136af1     core_dynrec.obj
 0002:00001af2       ?is_iec559@_Num_base@std@@2_NB 10136af2     core_dynrec.obj
 0002:00001af3       ?is_integer@_Num_base@std@@2_NB 10136af3     core_dynrec.obj
 0002:00001af4       ?value@?$_Sizeof@U_Nil@std@@U12@U12@U12@U12@U12@U12@U12@@std@@2IB 10136af4     core_dynrec.obj
 0002:00001af8       ?is_modulo@_Num_base@std@@2_NB 10136af8     core_dynrec.obj
 0002:00001af9       ?is_signed@_Num_base@std@@2_NB 10136af9     core_dynrec.obj
 0002:00001afa       ?is_specialized@_Num_base@std@@2_NB 10136afa     core_dynrec.obj
 0002:00001afb       ?tinyness_before@_Num_base@std@@2_NB 10136afb     core_dynrec.obj
 0002:00001afc       ?traps@_Num_base@std@@2_NB 10136afc     core_dynrec.obj
 0002:00001b00       ?round_style@_Num_base@std@@2W4float_round_style@2@B 10136b00     core_dynrec.obj
 0002:00001b04       ?digits@_Num_base@std@@2HB 10136b04     core_dynrec.obj
 0002:00001b08       ?digits10@_Num_base@std@@2HB 10136b08     core_dynrec.obj
 0002:00001b0c       ?max_digits10@_Num_base@std@@2HB 10136b0c     core_dynrec.obj
 0002:00001b10       ?max_exponent@_Num_base@std@@2HB 10136b10     core_dynrec.obj
 0002:00001b14       ?max_exponent10@_Num_base@std@@2HB 10136b14     core_dynrec.obj
 0002:00001b18       ?min_exponent@_Num_base@std@@2HB 10136b18     core_dynrec.obj
 0002:00001b1c       ?min_exponent10@_Num_base@std@@2HB 10136b1c     core_dynrec.obj
 0002:00001b20       ?radix@_Num_base@std@@2HB  10136b20     core_dynrec.obj
 0002:00001b24       ?is_bounded@_Num_int_base@std@@2_NB 10136b24     core_dynrec.obj
 0002:00001b25       ?is_exact@_Num_int_base@std@@2_NB 10136b25     core_dynrec.obj
 0002:00001b28       ??_C@_1HC@NCJDMLEH@?$AAu?$AA?3?$AA?2?$AAd?$AAy?$AAn?$AAa?$AAm?$AAi?$AAc?$AAt?$AAr?$AAa?$AAn?$AAs?$AAl?$AAa?$AAt?$AAo?$AAr?$AA?2?$AAy?$AAa?$AAc?$AAt?$AA?2?$AAd?$AAo?$AAs?$AAb?$AAo?$AAx@ 10136b28     core_dynrec.obj
 0002:00001bb0       ??_C@_1BA@KGGENJGD@?$AAt?$AAo?$AAb?$AAl?$AAo?$AAc?$AAk?$AA?$AA@ 10136bb0     core_dynrec.obj
 0002:00001bc8       ??_7_Generic_error_category@std@@6B@ 10136bc8     core_dynrec.obj
 0002:00001bec       ??_7_Iostream_error_category@std@@6B@ 10136bec     core_dynrec.obj
 0002:00001c10       ??_7_System_error_category@std@@6B@ 10136c10     core_dynrec.obj
 0002:00001c34       ??_7CodePageHandlerDynRec@@6B@ 10136c34     core_dynrec.obj
 0002:00001c80       ??_7error_category@std@@6B@ 10136c80     core_dynrec.obj
 0002:00001ca0       ??_C@_07DCLBNMLN@generic?$AA@ 10136ca0     core_dynrec.obj
 0002:00001cac       ??_C@_0O@BFJCFAAK@unknown?5error?$AA@ 10136cac     core_dynrec.obj
 0002:00001cbc       ??_C@_08LLGCOLLL@iostream?$AA@ 10136cbc     core_dynrec.obj
 0002:00001cc8       ??_C@_0BG@PADBLCHM@iostream?5stream?5error?$AA@ 10136cc8     core_dynrec.obj
 0002:00001ce4       ??_C@_06FHFOAHML@system?$AA@ 10136ce4     core_dynrec.obj
 0002:00001cf4       ??_7PageHandler@@6B@       10136cf4     core_dynrec.obj
 0002:00001df0       ??_C@_1IO@KJMDOFAC@?$AAD?$AA?3?$AA?2?$AAP?$AAr?$AAo?$AAg?$AAr?$AAa?$AAm?$AA?5?$AAF?$AAi?$AAl?$AAe?$AAs?$AA?5?$AA?$CI?$AAx?$AA8?$AA6?$AA?$CJ?$AA?2?$AAM?$AAi?$AAc?$AAr?$AAo?$AAs?$AAo?$AAf?$AAt@ 10136df0     core_dynrec.obj
 0002:00001ee4       ??_C@_1CK@EOPGIILJ@?$AAi?$AAn?$AAv?$AAa?$AAl?$AAi?$AAd?$AA?5?$AAn?$AAu?$AAl?$AAl?$AA?5?$AAp?$AAo?$AAi?$AAn?$AAt?$AAe?$AAr?$AA?$AA@ 10136ee4     core_dynrec.obj
 0002:00001fb8       ??_C@_0BI@CFPLBAOH@invalid?5string?5position?$AA@ 10136fb8     core_dynrec.obj
 0002:00001fd4       ??_C@_0BA@JFNIOLAK@string?5too?5long?$AA@ 10136fd4     core_dynrec.obj
 0002:00005e1c       ??_7CPU@@6B@               1013ae1c     cpu.obj
 0002:00005e28       ??_C@_0L@OFBNGBEI@Dec?5Cycles?$AA@ 1013ae28     cpu.obj
 0002:00005e38       ??_C@_09JFNJEMHA@cycledown?$AA@ 1013ae38     cpu.obj
 0002:00005e44       ??_C@_0L@NGGJNHLI@Inc?5Cycles?$AA@ 1013ae44     cpu.obj
 0002:00005e54       ??_C@_07BOBGCBPC@cycleup?$AA@ 1013ae54     cpu.obj
 0002:00005e64       ??_7Module_base@@6B@       1013ae64     cpu.obj
 0002:00006470       ??_C@_06BBIMEMCI@cycles?$AA@ 1013b470     cpu.obj
 0002:00006478       ??_C@_04GPMDFGEJ@type?$AA@ 1013b478     cpu.obj
 0002:00006480       ??_C@_0L@HHPOFMCB@parameters?$AA@ 1013b480     cpu.obj
 0002:00006490       ??_C@_03LJAEFNNE@max?$AA@  1013b490     cpu.obj
 0002:00006494       ??_C@_05GADAOHMC@limit?$AA@ 1013b494     cpu.obj
 0002:0000649c       ??_C@_04HAPDLBFF@auto?$AA@ 1013b49c     cpu.obj
 0002:000064a4       ??_C@_05OFLEIIDM@fixed?$AA@ 1013b4a4     cpu.obj
 0002:000064ac       ??_C@_04MLPFMBPG@core?$AA@ 1013b4ac     cpu.obj
 0002:000064b4       ??_C@_06IKLLLDHL@normal?$AA@ 1013b4b4     cpu.obj
 0002:000064bc       ??_C@_06MDDCAKGD@simple?$AA@ 1013b4bc     cpu.obj
 0002:000064c4       ??_C@_04PLMLMMEO@full?$AA@ 1013b4c4     cpu.obj
 0002:000064cc       ??_C@_07OBLKMMON@dynamic?$AA@ 1013b4cc     cpu.obj
 0002:000064d8       ??_C@_07CFCAJFDM@cputype?$AA@ 1013b4d8     cpu.obj
 0002:000064e4       ??_C@_03JPEBFCPB@386?$AA@  1013b4e4     cpu.obj
 0002:000064e8       ??_C@_0N@JLBCKFOB@386_prefetch?$AA@ 1013b4e8     cpu.obj
 0002:000064f8       ??_C@_0DL@HCDGKPHG@prefetch?5queue?5emulation?5require@ 1013b4f8     cpu.obj
 0002:00006540       ??_C@_08ICHOMEEM@386_slow?$AA@ 1013b540     cpu.obj
 0002:0000654c       ??_C@_08OGBPKJIF@486_slow?$AA@ 1013b54c     cpu.obj
 0002:00006558       ??_C@_0N@OGGBKDLJ@486_prefetch?$AA@ 1013b558     cpu.obj
 0002:00006568       ??_C@_0N@OIDAMILJ@pentium_slow?$AA@ 1013b568     cpu.obj
 0002:0000663c       ??_8?$basic_istringstream@DU?$char_traits@D@std@@V?$allocator@D@2@@std@@7B@ 1013b63c     cpu.obj
 0002:0000664c       ??_7?$basic_istringstream@DU?$char_traits@D@std@@V?$allocator@D@2@@std@@6B@ 1013b64c     cpu.obj
 0002:0000665c       ?npos@?$basic_string@DU?$char_traits@D@std@@V?$allocator@D@2@@std@@2IB 1013b65c     cpu.obj
 0002:000066bc       ??_7?$basic_stringbuf@DU?$char_traits@D@std@@V?$allocator@D@2@@std@@6B@ 1013b6bc     cpu.obj
 0002:00006854       _GUID_11a66efa_382e_451a_9234_1e0e12ef3085 1013b854     cross.obj
 0002:00006868       _GUID_43826d1e_e718_42ee_bc55_a1e261c37bfe 1013b868     cross.obj
 0002:0000687c       ??_C@_1DM@GMPLOCPK@?$AAs?$AAt?$AAr?$AAi?$AAn?$AAg?$AA?5?$AAs?$AAu?$AAb?$AAs?$AAc?$AAr?$AAi?$AAp?$AAt?$AA?5?$AAo?$AAu?$AAt?$AA?5?$AAo?$AAf?$AA?5?$AAr?$AAa?$AAn?$AAg?$AAe?$AA?$AA@ 1013b87c     cross.obj
 0002:00007c1c       ??_7MEMORY@@6B@            1013cc1c     memory.obj
 0002:00007c2c       ??_7IllegalPageHandler@@6B@ 1013cc2c     memory.obj
 0002:00007c7c       ??_7RAMPageHandler@@6B@    1013cc7c     memory.obj
 0002:00007ccc       ??_7ROMPageHandler@@6B@    1013cccc     memory.obj
 0002:00007d14       ??_C@_0CE@FIGGFMKI@Illegal?5read?5from?5?$CFx?0?5CS?3IP?5?$CF8x?3@ 1013cd14     memory.obj
 0002:00007d40       ??_C@_0CD@DJPHAAN@Illegal?5write?5to?5?$CFx?0?5CS?3IP?5?$CF8x?3?$CF@ 1013cd40     memory.obj
 0002:00007d6c       ??_C@_0BG@HKGODPCI@Write?5?$CFx?5to?5rom?5at?5?$CFx?$AA@ 1013cd6c     memory.obj
 0002:00008390       ??_C@_1II@DEKKGNCL@?$AAD?$AA?3?$AA?2?$AAP?$AAr?$AAo?$AAg?$AAr?$AAa?$AAm?$AA?5?$AAF?$AAi?$AAl?$AAe?$AAs?$AA?5?$AA?$CI?$AAx?$AA8?$AA6?$AA?$CJ?$AA?2?$AAM?$AAi?$AAc?$AAr?$AAo?$AAs?$AAo?$AAf?$AAt@ 1013d390     messages.obj
 0002:00008438       ??_C@_1EE@BBMFLDOC@?$AAl?$AAi?$AAs?$AAt?$AA?5?$AAe?$AAr?$AAa?$AAs?$AAe?$AA?5?$AAi?$AAt?$AAe?$AAr?$AAa?$AAt?$AAo?$AAr?$AA?5?$AAo?$AAu?$AAt?$AAs?$AAi?$AAd?$AAe?$AA?5?$AAr?$AAa?$AAn?$AAg@ 1013d438     messages.obj
 0002:0000848c       ??_C@_1DI@MDELDGPI@?$AAl?$AAi?$AAs?$AAt?$AA?5?$AAi?$AAt?$AAe?$AAr?$AAa?$AAt?$AAo?$AAr?$AAs?$AA?5?$AAi?$AAn?$AAc?$AAo?$AAm?$AAp?$AAa?$AAt?$AAi?$AAb?$AAl?$AAe?$AA?$AA@ 1013d48c     messages.obj
 0002:000084d0       ??_C@_1FO@GJIHNDLM@?$AA?$CC?$AAS?$AAt?$AAa?$AAn?$AAd?$AAa?$AAr?$AAd?$AA?5?$AAC?$AA?$CL?$AA?$CL?$AA?5?$AAL?$AAi?$AAb?$AAr?$AAa?$AAr?$AAi?$AAe?$AAs?$AA?5?$AAI?$AAn?$AAv?$AAa?$AAl?$AAi?$AAd?$AA?5@ 1013d4d0     messages.obj
 0002:00008540       ??_C@_15GANGMFKL@?$AA?$CF?$AAs?$AA?$AA@ 1013d540     messages.obj
 0002:00008548       ??_C@_1OI@PPOFDNFI@?$AAs?$AAt?$AAd?$AA?3?$AA?3?$AA_?$AAL?$AAi?$AAs?$AAt?$AA_?$AAc?$AAo?$AAn?$AAs?$AAt?$AA_?$AAi?$AAt?$AAe?$AAr?$AAa?$AAt?$AAo?$AAr?$AA?$DM?$AAc?$AAl?$AAa?$AAs?$AAs?$AA?5@ 1013d548     messages.obj
 0002:00008660       ??_C@_1CG@JNLFBNGN@?$AA?$CC?$AAi?$AAn?$AAv?$AAa?$AAl?$AAi?$AAd?$AA?5?$AAa?$AAr?$AAg?$AAu?$AAm?$AAe?$AAn?$AAt?$AA?$CC?$AA?$AA@ 1013d660     messages.obj
 0002:00008690       ??_C@_1EC@HILJLMMC@?$AAl?$AAi?$AAs?$AAt?$AA?5?$AAi?$AAt?$AAe?$AAr?$AAa?$AAt?$AAo?$AAr?$AA?5?$AAn?$AAo?$AAt?$AA?5?$AAd?$AAe?$AAr?$AAe?$AAf?$AAe?$AAr?$AAe?$AAn?$AAc?$AAa?$AAb?$AAl?$AAe@ 1013d690     messages.obj
 0002:000086e0       ??_C@_1FG@IBPIFFN@?$AA?$CC?$AAS?$AAt?$AAa?$AAn?$AAd?$AAa?$AAr?$AAd?$AA?5?$AAC?$AA?$CL?$AA?$CL?$AA?5?$AAL?$AAi?$AAb?$AAr?$AAa?$AAr?$AAi?$AAe?$AAs?$AA?5?$AAO?$AAu?$AAt?$AA?5?$AAo?$AAf?$AA?5?$AAR@ 1013d6e0     messages.obj
 0002:00008748       ??_C@_1OG@CFEJMHBM@?$AAs?$AAt?$AAd?$AA?3?$AA?3?$AA_?$AAL?$AAi?$AAs?$AAt?$AA_?$AAc?$AAo?$AAn?$AAs?$AAt?$AA_?$AAi?$AAt?$AAe?$AAr?$AAa?$AAt?$AAo?$AAr?$AA?$DM?$AAc?$AAl?$AAa?$AAs?$AAs?$AA?5@ 1013d748     messages.obj
 0002:0000885c       ??_C@_1BO@MEPPHOO@?$AA?$CC?$AAo?$AAu?$AAt?$AA?5?$AAo?$AAf?$AA?5?$AAr?$AAa?$AAn?$AAg?$AAe?$AA?$CC?$AA?$AA@ 1013d85c     messages.obj
 0002:000089a0       ??_C@_1EA@DOGAGKDH@?$AAl?$AAi?$AAs?$AAt?$AA?5?$AAi?$AAt?$AAe?$AAr?$AAa?$AAt?$AAo?$AAr?$AA?5?$AAn?$AAo?$AAt?$AA?5?$AAi?$AAn?$AAc?$AAr?$AAe?$AAm?$AAe?$AAn?$AAt?$AAa?$AAb?$AAl?$AAe?$AA?$AA@ 1013d9a0     messages.obj
 0002:000089f0       ??_C@_1OI@FPBINEJN@?$AAs?$AAt?$AAd?$AA?3?$AA?3?$AA_?$AAL?$AAi?$AAs?$AAt?$AA_?$AAc?$AAo?$AAn?$AAs?$AAt?$AA_?$AAi?$AAt?$AAe?$AAr?$AAa?$AAt?$AAo?$AAr?$AA?$DM?$AAc?$AAl?$AAa?$AAs?$AAs?$AA?5@ 1013d9f0     messages.obj
 0002:00008bac       ??_C@_0BB@MOGOBHAF@list?$DMT?$DO?5too?5long?$AA@ 1013dbac     messages.obj
 0002:00008fd0       ??_C@_1JA@LDNEKANO@?$AAD?$AA?3?$AA?2?$AAP?$AAr?$AAo?$AAg?$AAr?$AAa?$AAm?$AA?5?$AAF?$AAi?$AAl?$AAe?$AAs?$AA?5?$AA?$CI?$AAx?$AA8?$AA6?$AA?$CJ?$AA?2?$AAM?$AAi?$AAc?$AAr?$AAo?$AAs?$AAo?$AAf?$AAt@ 1013dfd0     messages.obj
 0002:0000907c       ??_C@_1DC@POOIKBAO@?$AAI?$AAT?$AAE?$AAR?$AAA?$AAT?$AAO?$AAR?$AA?5?$AAL?$AAI?$AAS?$AAT?$AA?5?$AAC?$AAO?$AAR?$AAR?$AAU?$AAP?$AAT?$AAE?$AAD?$AA?$CB?$AA?$AA@ 1013e07c     messages.obj
 0002:0000963c       ??_7PAGING@@6B@            1013e63c     paging.obj
 0002:0000964c       ??_7InitPageHandler@@6B@   1013e64c     paging.obj
 0002:0000969c       ??_7InitPageUserROHandler@@6B@ 1013e69c     paging.obj
 0002:00009754       ??_C@_0CI@NOIKGNMA@Page?5access?5denied?3?5cpl?$DN?$CFi?0?5?$CFx?3?$CF@ 1013e754     paging.obj
 0002:0000cff4       ??_7Section_prop@@6B@      10141ff4     setup.obj
 0002:0000d074       ??_8?$basic_ostringstream@DU?$char_traits@D@std@@V?$allocator@D@2@@std@@7B@ 10142074     setup.obj
 0002:0000d084       ??_7?$basic_ostringstream@DU?$char_traits@D@std@@V?$allocator@D@2@@std@@6B@ 10142084     setup.obj
 0002:0000d410       ??_7Prop_int@@6B@          10142410     setup.obj
 0002:0000d484       ??_7Prop_string@@6B@       10142484     setup.obj
 0002:0000d508       ??_7Prop_path@@6B@         10142508     setup.obj
 0002:0000d57c       ??_7Prop_bool@@6B@         1014257c     setup.obj
 0002:0000d5ec       ??_7Prop_hex@@6B@          101425ec     setup.obj
 0002:0000d6b0       ??_7Prop_multival@@6B@     101426b0     setup.obj
 0002:0000d6c4       ??_C@_00CNPNBAHC@?$AA@     101426c4     setup.obj
 0002:0000d6cc       ??_7Prop_multival_remain@@6B@ 101426cc     setup.obj
 0002:0000d770       ??_C@_1OA@CGOJJMKE@?$AAs?$AAt?$AAd?$AA?3?$AA?3?$AA_?$AAL?$AAi?$AAs?$AAt?$AA_?$AAc?$AAo?$AAn?$AAs?$AAt?$AA_?$AAi?$AAt?$AAe?$AAr?$AAa?$AAt?$AAo?$AAr?$AA?$DM?$AAc?$AAl?$AAa?$AAs?$AAs?$AA?5@ 10142770     setup.obj
 0002:0000d9a0       ??_C@_1NO@JIDGEMPD@?$AAs?$AAt?$AAd?$AA?3?$AA?3?$AA_?$AAL?$AAi?$AAs?$AAt?$AA_?$AAc?$AAo?$AAn?$AAs?$AAt?$AA_?$AAi?$AAt?$AAe?$AAr?$AAa?$AAt?$AAo?$AAr?$AA?$DM?$AAc?$AAl?$AAa?$AAs?$AAs?$AA?5@ 101429a0     setup.obj
 0002:0000db0c       ??_7Section@@6B@           10142b0c     setup.obj
 0002:0000db7c       ??_7Section_line@@6B@      10142b7c     setup.obj
 0002:0000dec4       ??_8?$basic_ifstream@DU?$char_traits@D@std@@@std@@7B@ 10142ec4     setup.obj
 0002:0000ded4       ??_7?$basic_ifstream@DU?$char_traits@D@std@@@std@@6B@ 10142ed4     setup.obj
 0002:0000e0e0       ??_C@_1BHC@NDDHDPAC@?$AAs?$AAt?$AAd?$AA?3?$AA?3?$AA_?$AAL?$AAi?$AAs?$AAt?$AA_?$AAc?$AAo?$AAn?$AAs?$AAt?$AA_?$AAi?$AAt?$AAe?$AAr?$AAa?$AAt?$AAo?$AAr?$AA?$DM?$AAc?$AAl?$AAa?$AAs?$AAs?$AA?5@ 101430e0     setup.obj
 0002:0000e540       ??_C@_1IM@OMNFCPJM@?$AAD?$AA?3?$AA?2?$AAP?$AAr?$AAo?$AAg?$AAr?$AAa?$AAm?$AA?5?$AAF?$AAi?$AAl?$AAe?$AAs?$AA?5?$AA?$CI?$AAx?$AA8?$AA6?$AA?$CJ?$AA?2?$AAM?$AAi?$AAc?$AAr?$AAo?$AAs?$AAo?$AAf?$AAt@ 10143540     setup.obj
 0002:0000e5e8       ??_C@_1EG@FOHJJHAC@?$AAv?$AAe?$AAc?$AAt?$AAo?$AAr?$AA?5?$AAi?$AAt?$AAe?$AAr?$AAa?$AAt?$AAo?$AAr?$AA?5?$AAn?$AAo?$AAt?$AA?5?$AAd?$AAe?$AAr?$AAe?$AAf?$AAe?$AAr?$AAe?$AAn?$AAc?$AAa?$AAb@ 101435e8     setup.obj
 0002:0000e640       ??_C@_1NE@MAOJBJMD@?$AAs?$AAt?$AAd?$AA?3?$AA?3?$AA_?$AAV?$AAe?$AAc?$AAt?$AAo?$AAr?$AA_?$AAc?$AAo?$AAn?$AAs?$AAt?$AA_?$AAi?$AAt?$AAe?$AAr?$AAa?$AAt?$AAo?$AAr?$AA?$DM?$AAc?$AAl?$AAa?$AAs@ 10143640     setup.obj
 0002:0000eac0       ??_7Property@@6B@          10143ac0     setup.obj
 0002:0000ecb8       ??_C@_1OC@IPLNHLPB@?$AAs?$AAt?$AAd?$AA?3?$AA?3?$AA_?$AAL?$AAi?$AAs?$AAt?$AA_?$AAc?$AAo?$AAn?$AAs?$AAt?$AA_?$AAi?$AAt?$AAe?$AAr?$AAa?$AAt?$AAo?$AAr?$AA?$DM?$AAc?$AAl?$AAa?$AAs?$AAs?$AA?5@ 10143cb8     setup.obj
 0002:0000edc8       ??_C@_1OC@CPEAJCDE@?$AAs?$AAt?$AAd?$AA?3?$AA?3?$AA_?$AAL?$AAi?$AAs?$AAt?$AA_?$AAc?$AAo?$AAn?$AAs?$AAt?$AA_?$AAi?$AAt?$AAe?$AAr?$AAa?$AAt?$AAo?$AAr?$AA?$DM?$AAc?$AAl?$AAa?$AAs?$AAs?$AA?5@ 10143dc8     setup.obj
 0002:0000eed8       ??_C@_1OA@PMJENMGJ@?$AAs?$AAt?$AAd?$AA?3?$AA?3?$AA_?$AAL?$AAi?$AAs?$AAt?$AA_?$AAc?$AAo?$AAn?$AAs?$AAt?$AA_?$AAi?$AAt?$AAe?$AAr?$AAa?$AAt?$AAo?$AAr?$AA?$DM?$AAc?$AAl?$AAa?$AAs?$AAs?$AA?5@ 10143ed8     setup.obj
 0002:0000efe8       ??_C@_1OA@FMGJDFKM@?$AAs?$AAt?$AAd?$AA?3?$AA?3?$AA_?$AAL?$AAi?$AAs?$AAt?$AA_?$AAc?$AAo?$AAn?$AAs?$AAt?$AA_?$AAi?$AAt?$AAe?$AAr?$AAa?$AAt?$AAo?$AAr?$AA?$DM?$AAc?$AAl?$AAa?$AAs?$AAs?$AA?5@ 10143fe8     setup.obj
 0002:0000f0f8       ??_C@_1EE@EJDKCLKB@?$AAv?$AAe?$AAc?$AAt?$AAo?$AAr?$AA?5?$AAi?$AAt?$AAe?$AAr?$AAa?$AAt?$AAo?$AAr?$AA?5?$AAn?$AAo?$AAt?$AA?5?$AAi?$AAn?$AAc?$AAr?$AAe?$AAm?$AAe?$AAn?$AAt?$AAa?$AAb?$AAl@ 101440f8     setup.obj
 0002:0000f150       ??_C@_1NG@DINDBHDO@?$AAs?$AAt?$AAd?$AA?3?$AA?3?$AA_?$AAV?$AAe?$AAc?$AAt?$AAo?$AAr?$AA_?$AAc?$AAo?$AAn?$AAs?$AAt?$AA_?$AAi?$AAt?$AAe?$AAr?$AAa?$AAt?$AAo?$AAr?$AA?$DM?$AAc?$AAl?$AAa?$AAs@ 10144150     setup.obj
 0002:0000f2c0       ??_C@_1BAC@OFIFAEGK@?$AAs?$AAt?$AAd?$AA?3?$AA?3?$AA_?$AAL?$AAi?$AAs?$AAt?$AA_?$AAc?$AAo?$AAn?$AAs?$AAt?$AA_?$AAi?$AAt?$AAe?$AAr?$AAa?$AAt?$AAo?$AAr?$AA?$DM?$AAc?$AAl?$AAa?$AAs?$AAs?$AA?5@ 101442c0     setup.obj
 0002:0000f3f8       ??_C@_1BAA@BIDANGOI@?$AAs?$AAt?$AAd?$AA?3?$AA?3?$AA_?$AAL?$AAi?$AAs?$AAt?$AA_?$AAc?$AAo?$AAn?$AAs?$AAt?$AA_?$AAi?$AAt?$AAe?$AAr?$AAa?$AAt?$AAo?$AAr?$AA?$DM?$AAc?$AAl?$AAa?$AAs?$AAs?$AA?5@ 101443f8     setup.obj
 0002:0000f704       ??_7?$basic_filebuf@DU?$char_traits@D@std@@@std@@6B@ 10144704     setup.obj
 0002:0000fa38       ??_C@_1BHA@GCEHFIND@?$AAs?$AAt?$AAd?$AA?3?$AA?3?$AA_?$AAL?$AAi?$AAs?$AAt?$AA_?$AAc?$AAo?$AAn?$AAs?$AAt?$AA_?$AAi?$AAt?$AAe?$AAr?$AAa?$AAt?$AAo?$AAr?$AA?$DM?$AAc?$AAl?$AAa?$AAs?$AAs?$AA?5@ 10144a38     setup.obj
 0002:0000fbf8       ??_C@_1BHC@HDMKNGMH@?$AAs?$AAt?$AAd?$AA?3?$AA?3?$AA_?$AAL?$AAi?$AAs?$AAt?$AA_?$AAc?$AAo?$AAn?$AAs?$AAt?$AA_?$AAi?$AAt?$AAe?$AAr?$AAa?$AAt?$AAo?$AAr?$AA?$DM?$AAc?$AAl?$AAa?$AAs?$AAs?$AA?5@ 10144bf8     setup.obj
 0002:0000fed0       ??_C@_08EPJLHIJG@bad?5cast?$AA@ 10144ed0     setup.obj
 0002:0000ff90       ??_C@_1DM@HINDPMBP@?$AAv?$AAe?$AAc?$AAt?$AAo?$AAr?$AA?5?$AAi?$AAt?$AAe?$AAr?$AAa?$AAt?$AAo?$AAr?$AAs?$AA?5?$AAi?$AAn?$AAc?$AAo?$AAm?$AAp?$AAa?$AAt?$AAi?$AAb?$AAl?$AAe?$AA?$AA@ 10144f90     setup.obj
 0002:0000ffd8       ??_C@_1MO@FJMLAMEF@?$AAs?$AAt?$AAd?$AA?3?$AA?3?$AA_?$AAV?$AAe?$AAc?$AAt?$AAo?$AAr?$AA_?$AAc?$AAo?$AAn?$AAs?$AAt?$AA_?$AAi?$AAt?$AAe?$AAr?$AAa?$AAt?$AAo?$AAr?$AA?$DM?$AAc?$AAl?$AAa?$AAs@ 10144fd8     setup.obj
 0002:00010254       ??_C@_0BD@OLBABOEK@vector?$DMT?$DO?5too?5long?$AA@ 10145254     setup.obj
 0002:00010878       ??_C@_1BAC@EFHIONKP@?$AAs?$AAt?$AAd?$AA?3?$AA?3?$AA_?$AAL?$AAi?$AAs?$AAt?$AA_?$AAc?$AAo?$AAn?$AAs?$AAt?$AA_?$AAi?$AAt?$AAe?$AAr?$AAa?$AAt?$AAo?$AAr?$AA?$DM?$AAc?$AAl?$AAa?$AAs?$AAs?$AA?5@ 10145878     setup.obj
 0002:00010a60       ??_C@_1EA@JDNDELPC@?$AAl?$AAi?$AAs?$AAt?$AA?5?$AAi?$AAt?$AAe?$AAr?$AAa?$AAt?$AAo?$AAr?$AA?5?$AAn?$AAo?$AAt?$AA?5?$AAd?$AAe?$AAc?$AAr?$AAe?$AAm?$AAe?$AAn?$AAt?$AAa?$AAb?$AAl?$AAe?$AA?$AA@ 10145a60     setup.obj
 0002:00010ab0       ??_C@_1OA@PKGGAKI@?$AAs?$AAt?$AAd?$AA?3?$AA?3?$AA_?$AAL?$AAi?$AAs?$AAt?$AA_?$AAc?$AAo?$AAn?$AAs?$AAt?$AA_?$AAi?$AAt?$AAe?$AAr?$AAa?$AAt?$AAo?$AAr?$AA?$DM?$AAc?$AAl?$AAa?$AAs?$AAs?$AA?5@ 10145ab0     setup.obj
 0002:00011588       ??_C@_1IO@EHEPBMND@?$AAD?$AA?3?$AA?2?$AAP?$AAr?$AAo?$AAg?$AAr?$AAa?$AAm?$AA?5?$AAF?$AAi?$AAl?$AAe?$AAs?$AA?5?$AA?$CI?$AAx?$AA8?$AA6?$AA?$CJ?$AA?2?$AAM?$AAi?$AAc?$AAr?$AAo?$AAs?$AAo?$AAf?$AAt@ 10146588     setup.obj
 0002:00011d14       ??_C@_1DM@KDEKGMPF@?$AAs?$AAt?$AAr?$AAi?$AAn?$AAg?$AA?5?$AAi?$AAt?$AAe?$AAr?$AAa?$AAt?$AAo?$AAr?$AAs?$AA?5?$AAi?$AAn?$AAc?$AAo?$AAm?$AAp?$AAa?$AAt?$AAi?$AAb?$AAl?$AAe?$AA?$AA@ 10146d14     setup.obj
 0002:00011d60       ??_C@_1MA@BDELDFHB@?$AAs?$AAt?$AAd?$AA?3?$AA?3?$AA_?$AAS?$AAt?$AAr?$AAi?$AAn?$AAg?$AA_?$AAc?$AAo?$AAn?$AAs?$AAt?$AA_?$AAi?$AAt?$AAe?$AAr?$AAa?$AAt?$AAo?$AAr?$AA?$DM?$AAc?$AAl?$AAa?$AAs@ 10146d60     setup.obj
 0002:00011e48       ??_C@_1EG@CNCHLAOB@?$AAs?$AAt?$AAr?$AAi?$AAn?$AAg?$AA?5?$AAi?$AAt?$AAe?$AAr?$AAa?$AAt?$AAo?$AAr?$AA?5?$AAn?$AAo?$AAt?$AA?5?$AAd?$AAe?$AAr?$AAe?$AAf?$AAe?$AAr?$AAe?$AAn?$AAc?$AAa?$AAb@ 10146e48     setup.obj
 0002:00011ea0       ??_C@_1MG@GDGHDIKC@?$AAs?$AAt?$AAd?$AA?3?$AA?3?$AA_?$AAS?$AAt?$AAr?$AAi?$AAn?$AAg?$AA_?$AAc?$AAo?$AAn?$AAs?$AAt?$AA_?$AAi?$AAt?$AAe?$AAr?$AAa?$AAt?$AAo?$AAr?$AA?$DM?$AAc?$AAl?$AAa?$AAs@ 10146ea0     setup.obj
 0002:00012264       ??_C@_1CO@DGLIKNHI@?$AAi?$AAn?$AAv?$AAa?$AAl?$AAi?$AAd?$AA?5?$AAi?$AAt?$AAe?$AAr?$AAa?$AAt?$AAo?$AAr?$AA?5?$AAr?$AAa?$AAn?$AAg?$AAe?$AA?$AA@ 10147264     setup.obj
 0002:000127d0       ??_C@_1JC@NEHFPLFB@?$AAD?$AA?3?$AA?2?$AAP?$AAr?$AAo?$AAg?$AAr?$AAa?$AAm?$AA?5?$AAF?$AAi?$AAl?$AAe?$AAs?$AA?5?$AA?$CI?$AAx?$AA8?$AA6?$AA?$CJ?$AA?2?$AAM?$AAi?$AAc?$AAr?$AAo?$AAs?$AAo?$AAf?$AAt@ 101477d0     support.obj
 0002:00012be8       ??_C@_1EM@MEFKBKGF@?$AAs?$AAt?$AAr?$AAi?$AAn?$AAg?$AA?5?$AAi?$AAt?$AAe?$AAr?$AAa?$AAt?$AAo?$AAr?$AA?5?$AA?$CL?$AA?5?$AAo?$AAf?$AAf?$AAs?$AAe?$AAt?$AA?5?$AAo?$AAu?$AAt?$AA?5?$AAo?$AAf?$AA?5@ 10147be8     support.obj
 0002:00012c48       ??_C@_1MI@HNCOPGEL@?$AAs?$AAt?$AAd?$AA?3?$AA?3?$AA_?$AAS?$AAt?$AAr?$AAi?$AAn?$AAg?$AA_?$AAc?$AAo?$AAn?$AAs?$AAt?$AA_?$AAi?$AAt?$AAe?$AAr?$AAa?$AAt?$AAo?$AAr?$AA?$DM?$AAc?$AAl?$AAa?$AAs@ 10147c48     support.obj
 0002:00012d38       ??_C@_1LK@BJHNKBFO@?$AA?$CI?$AA_?$AA_?$AAo?$AAn?$AAe?$AAx?$AAi?$AAt?$AAe?$AAn?$AAd?$AA?5?$AA?$CB?$AA?$DN?$AA?5?$AAN?$AAU?$AAL?$AAL?$AA?5?$AA?$CG?$AA?$CG?$AA?5?$AA_?$AA_?$AAo?$AAn?$AAe?$AAx?$AAi?$AAt@ 10147d38     MSVCRTD:atonexit.obj
 0002:00012df8       ??_C@_1GM@LKHNLKJO@?$AAf?$AA?3?$AA?2?$AAd?$AAd?$AA?2?$AAv?$AAc?$AAt?$AAo?$AAo?$AAl?$AAs?$AA?2?$AAc?$AAr?$AAt?$AA_?$AAb?$AAl?$AAd?$AA?2?$AAs?$AAe?$AAl?$AAf?$AA_?$AAa?$AAr?$AAm?$AA_?$AAa@ 10147df8     MSVCRTD:atonexit.obj
 0002:00012e64       ??_C@_0DG@MPDPAF@f?3?2dd?2vctools?2crt_bld?2self_arm_a@ 10147e64     MSVCRTD:atonexit.obj
 0002:00012ea0       ??_7type_info@@6B@         10147ea0     MSVCRTD:ti_inst.obj
 0002:00012ea8       ??_C@_0NN@NGPKDKPD@The?5value?5of?5ESP?5was?5not?5properl@ 10147ea8     MSVCRTD:error.obj
 0002:00012f88       ??_C@_0BBN@GPMLNJCF@A?5cast?5to?5a?5smaller?5data?5type?5ha@ 10147f88     MSVCRTD:error.obj
 0002:000130a8       ??_C@_0BN@FFOINMNJ@Stack?5memory?5was?5corrupted?6?$AN?$AA@ 101480a8     MSVCRTD:error.obj
 0002:000130c8       ??_C@_0DG@HKJMLLLP@A?5local?5variable?5was?5used?5before@ 101480c8     MSVCRTD:error.obj
 0002:00013100       ??_C@_0CM@NGINOKPC@Stack?5memory?5around?5_alloca?5was?5@ 10148100     MSVCRTD:error.obj
 0002:0001312c       ??_C@_0BO@GNIAFIKK@Unknown?5Runtime?5Check?5Error?6?$AN?$AA@ 1014812c     MSVCRTD:error.obj
 0002:000131e8       ??_C@_0CG@IAFNJNEE@Stack?5corrupted?5near?5unknown?5var@ 101481e8     MSVCRTD:error.obj
 0002:00013210       ??_C@_1BG@OILDLIOJ@?$AAu?$AAs?$AAe?$AAr?$AA3?$AA2?$AA?4?$AAd?$AAl?$AAl?$AA?$AA@ 10148210     MSVCRTD:error.obj
 0002:00013228       ??_C@_09FOPFMPEJ@wsprintfA?$AA@ 10148228     MSVCRTD:error.obj
 0002:00013234       ??_C@_08KJEDNCKC@?$CFs?$CFs?$CFs?$CFs?$AA@ 10148234     MSVCRTD:error.obj
 0002:00013240       ??_C@_02LLMPMKNF@?$DO?5?$AA@ 10148240     MSVCRTD:error.obj
 0002:00013244       ??_C@_01EEMJAFIK@?6?$AA@   10148244     MSVCRTD:error.obj
 0002:00013248       ??_C@_0BC@KIBAILCI@?$CFs?$CFs?$CFp?$CFs?$CFld?$CFs?$CFd?$CFs?$AA@ 10148248     MSVCRTD:error.obj
 0002:00013260       ??_C@_0EI@CLEPFNGI@Stack?5area?5around?5_alloca?5memory@ 10148260     MSVCRTD:error.obj
 0002:000132a8       ??_C@_0N@MHFFIMFG@?6Address?3?50x?$AA@ 101482a8     MSVCRTD:error.obj
 0002:000132b8       ??_C@_07DFDJCKFN@?6Size?3?5?$AA@ 101482b8     MSVCRTD:error.obj
 0002:000132c0       ??_C@_0CK@DKGBICFE@?6Allocation?5number?5within?5this?5f@ 101482c0     MSVCRTD:error.obj
 0002:000132ec       ??_C@_08OMAHNMHJ@?6Data?3?5?$DM?$AA@ 101482ec     MSVCRTD:error.obj
 0002:000132f8       ??_C@_0EJ@LJKNEOLN@Stack?5area?5around?5_alloca?5memory@ 101482f8     MSVCRTD:error.obj
 0002:00013344       ??_C@_0DE@OHJBPMBP@A?5variable?5is?5being?5used?5without@ 10148344     MSVCRTD:error.obj
 0002:00013378       ??_C@_1GM@OLMCBDMB@?$AAR?$AAu?$AAn?$AAt?$AAi?$AAm?$AAe?$AA?5?$AAC?$AAh?$AAe?$AAc?$AAk?$AA?5?$AAE?$AAr?$AAr?$AAo?$AAr?$AA?4?$AA?6?$AA?$AN?$AA?5?$AAU?$AAn?$AAa?$AAb?$AAl?$AAe?$AA?5?$AAt?$AAo@ 10148378     MSVCRTD:error.obj
 0002:000133e8       ??_C@_1EA@NFKNIFJP@?$AAR?$AAu?$AAn?$AA?9?$AAT?$AAi?$AAm?$AAe?$AA?5?$AAC?$AAh?$AAe?$AAc?$AAk?$AA?5?$AAF?$AAa?$AAi?$AAl?$AAu?$AAr?$AAe?$AA?5?$AA?$CD?$AA?$CF?$AAd?$AA?5?$AA?9?$AA?5?$AA?$CF?$AAs?$AA?$AA@ 101483e8     MSVCRTD:error.obj
 0002:00013428       ??_C@_0BB@PFFGGCJP@Unknown?5Filename?$AA@ 10148428     MSVCRTD:error.obj
 0002:0001343c       ??_C@_0BE@GNBOBNCK@Unknown?5Module?5Name?$AA@ 1014843c     MSVCRTD:error.obj
 0002:00013450       ??_C@_0CA@IODNCDPG@Run?9Time?5Check?5Failure?5?$CD?$CFd?5?9?5?$CFs?$AA@ 10148450     MSVCRTD:error.obj
 0002:00013470       ??_C@_05MKKEDADM@?$CF?42X?5?$AA@ 10148470     MSVCRTD:error.obj
 0002:00013480       _pRawDllMain               10148480     MSVCRTD:crtdll.obj
 0002:00013480       _pDefaultRawDllMain        10148480     MSVCRTD:crtdll.obj
 0002:00013484       ??_C@_0DE@NHKAODKD@f?3?2dd?2vctools?2crt_bld?2self_arm_a@ 10148484     MSVCRTD:crtdll.obj
 0002:000134b8       ??_C@_0BJ@HEGAHDFO@Stack?5pointer?5corruption?$AA@ 101484b8     MSVCRTD:userapi.obj
 0002:000134d4       ??_C@_0CK@FEGOIOPB@Cast?5to?5smaller?5type?5causing?5los@ 101484d4     MSVCRTD:userapi.obj
 0002:00013500       ??_C@_0BI@CIGMDCBH@Stack?5memory?5corruption?$AA@ 10148500     MSVCRTD:userapi.obj
 0002:00013518       ??_C@_0CK@CNLNOEPB@Local?5variable?5used?5before?5initi@ 10148518     MSVCRTD:userapi.obj
 0002:00013544       ??_C@_0BP@OGBCLIBO@Stack?5around?5_alloca?5corrupted?$AA@ 10148544     MSVCRTD:userapi.obj
 0002:000135b0       ?LocalIdBitWidth@CrossScopeId@CodeViewInfo@@2IB 101485b0     MSVCRTD:pdblkup.obj
 0002:000135b4       ?IdScopeBitWidth@CrossScopeId@CodeViewInfo@@2IB 101485b4     MSVCRTD:pdblkup.obj
 0002:000135b8       ?StartCrossScopeId@CrossScopeId@CodeViewInfo@@2IB 101485b8     MSVCRTD:pdblkup.obj
 0002:000135bc       ?LocalIdMask@CrossScopeId@CodeViewInfo@@2IB 101485bc     MSVCRTD:pdblkup.obj
 0002:000135c0       ?ScopeIdMask@CrossScopeId@CodeViewInfo@@2IB 101485c0     MSVCRTD:pdblkup.obj
 0002:000135c4       ?MaxLocalId@CrossScopeId@CodeViewInfo@@2IB 101485c4     MSVCRTD:pdblkup.obj
 0002:000135c8       ?MaxScopeId@CrossScopeId@CodeViewInfo@@2IB 101485c8     MSVCRTD:pdblkup.obj
 0002:000135cc       ??_C@_0BB@KCIACLNC@PDBOpenValidate5?$AA@ 101485cc     MSVCRTD:pdblkup.obj
 0002:000135e0       ??_C@_01KDCPPGHE@r?$AA@    101485e0     MSVCRTD:pdblkup.obj
 0002:000135e4       ??_C@_1BC@MIBIBMGK@?$AAM?$AAS?$AAP?$AAD?$AAB?$AA1?$AA1?$AA0?$AA?$AA@ 101485e4     MSVCRTD:pdblkup.obj
 0002:000135f8       ??_C@_1BK@GAEMIDIL@?$AAA?$AAD?$AAV?$AAA?$AAP?$AAI?$AA3?$AA2?$AA?4?$AAD?$AAL?$AAL?$AA?$AA@ 101485f8     MSVCRTD:pdblkup.obj
 0002:00013614       ??_C@_0O@COHOBMLB@RegOpenKeyExW?$AA@ 10148614     MSVCRTD:pdblkup.obj
 0002:00013624       ??_C@_0BB@GLNAEDBD@RegQueryValueExW?$AA@ 10148624     MSVCRTD:pdblkup.obj
 0002:00013638       ??_C@_0M@HLOHPNFA@RegCloseKey?$AA@ 10148638     MSVCRTD:pdblkup.obj
 0002:00013648       ??_C@_1FM@OEMPKHJI@?$AAS?$AAO?$AAF?$AAT?$AAW?$AAA?$AAR?$AAE?$AA?2?$AAM?$AAi?$AAc?$AAr?$AAo?$AAs?$AAo?$AAf?$AAt?$AA?2?$AAV?$AAi?$AAs?$AAu?$AAa?$AAl?$AAS?$AAt?$AAu?$AAd?$AAi?$AAo?$AA?2@ 10148648     MSVCRTD:pdblkup.obj
 0002:000136a4       ??_C@_1CK@HHHCOJPD@?$AAE?$AAn?$AAv?$AAi?$AAr?$AAo?$AAn?$AAm?$AAe?$AAn?$AAt?$AAD?$AAi?$AAr?$AAe?$AAc?$AAt?$AAo?$AAr?$AAy?$AA?$AA@ 101486a4     MSVCRTD:pdblkup.obj
 0002:000136ec       ?ProcessDetach@NativeDll@<CrtImplementationDetails>@@0IB 101486ec     MSVCRTD:initsect.obj
 0002:000136f0       ?ProcessAttach@NativeDll@<CrtImplementationDetails>@@0IB 101486f0     MSVCRTD:initsect.obj
 0002:000136f4       ?ThreadAttach@NativeDll@<CrtImplementationDetails>@@0IB 101486f4     MSVCRTD:initsect.obj
 0002:000136f8       ?ThreadDetach@NativeDll@<CrtImplementationDetails>@@0IB 101486f8     MSVCRTD:initsect.obj
 0002:000136fc       ?ProcessVerifier@NativeDll@<CrtImplementationDetails>@@0IB 101486fc     MSVCRTD:initsect.obj
 0002:00013748       ??_C@_0DH@LONCNKMB@f?3?2dd?2vctools?2crt_bld?2self_arm_a@ 10148748     msvcprtd:locale0_implib.obj
 0002:00013d98       ??_R1A@?0A@EA@_Generic_error_category@std@@8 10148d98     core_dynrec.obj
 0002:00013dbc       ??_R2error_category@std@@8 10148dbc     core_dynrec.obj
 0002:00013dc8       ??_R3error_category@std@@8 10148dc8     core_dynrec.obj
 0002:00013ddc       ??_R1A@?0A@EA@error_category@std@@8 10148ddc     core_dynrec.obj
 0002:00013e00       ??_R2_Generic_error_category@std@@8 10148e00     core_dynrec.obj
 0002:00013e10       ??_R3_Generic_error_category@std@@8 10148e10     core_dynrec.obj
 0002:00013e24       ??_R4_Generic_error_category@std@@6B@ 10148e24     core_dynrec.obj
 0002:00013e3c       ??_R1A@?0A@EA@_Iostream_error_category@std@@8 10148e3c     core_dynrec.obj
 0002:00013e60       ??_R2_Iostream_error_category@std@@8 10148e60     core_dynrec.obj
 0002:00013e74       ??_R3_Iostream_error_category@std@@8 10148e74     core_dynrec.obj
 0002:00013e88       ??_R4_Iostream_error_category@std@@6B@ 10148e88     core_dynrec.obj
 0002:00013ea0       ??_R1A@?0A@EA@_System_error_category@std@@8 10148ea0     core_dynrec.obj
 0002:00013ec4       ??_R2_System_error_category@std@@8 10148ec4     core_dynrec.obj
 0002:00013ed8       ??_R3_System_error_category@std@@8 10148ed8     core_dynrec.obj
 0002:00013eec       ??_R4_System_error_category@std@@6B@ 10148eec     core_dynrec.obj
 0002:00013f04       ??_R1A@?0A@EA@CodePageHandlerDynRec@@8 10148f04     core_dynrec.obj
 0002:00013f28       ??_R2PageHandler@@8        10148f28     core_dynrec.obj
 0002:00013f34       ??_R3PageHandler@@8        10148f34     core_dynrec.obj
 0002:00013f48       ??_R1A@?0A@EA@PageHandler@@8 10148f48     core_dynrec.obj
 0002:00013f6c       ??_R2CodePageHandlerDynRec@@8 10148f6c     core_dynrec.obj
 0002:00013f7c       ??_R3CodePageHandlerDynRec@@8 10148f7c     core_dynrec.obj
 0002:00013f90       ??_R4CodePageHandlerDynRec@@6B@ 10148f90     core_dynrec.obj
 0002:00013fa8       ??_R4error_category@std@@6B@ 10148fa8     core_dynrec.obj
 0002:00013fc0       ??_R4PageHandler@@6B@      10148fc0     core_dynrec.obj
 0002:00013fd8       ??_R1A@?0A@EA@CPU@@8       10148fd8     cpu.obj
 0002:00013ffc       ??_R2Module_base@@8        10148ffc     cpu.obj
 0002:00014008       ??_R3Module_base@@8        10149008     cpu.obj
 0002:0001401c       ??_R1A@?0A@EA@Module_base@@8 1014901c     cpu.obj
 0002:00014040       ??_R2CPU@@8                10149040     cpu.obj
 0002:00014050       ??_R3CPU@@8                10149050     cpu.obj
 0002:00014064       ??_R4CPU@@6B@              10149064     cpu.obj
 0002:0001407c       ??_R4Module_base@@6B@      1014907c     cpu.obj
 0002:00014094       ??_R1A@?0A@EA@?$basic_istringstream@DU?$char_traits@D@std@@V?$allocator@D@2@@std@@8 10149094     cpu.obj
 0002:000140b8       ??_R1A@?0A@EA@?$basic_ios@DU?$char_traits@D@std@@@std@@8 101490b8     cpu.obj
 0002:000140dc       ??_R1A@?0A@EA@?$_Iosb@H@std@@8 101490dc     cpu.obj
 0002:00014100       ??_R2?$_Iosb@H@std@@8      10149100     cpu.obj
 0002:0001410c       ??_R3?$_Iosb@H@std@@8      1014910c     cpu.obj
 0002:00014120       ??_R17?0A@EA@?$_Iosb@H@std@@8 10149120     cpu.obj
 0002:00014144       ??_R2ios_base@std@@8       10149144     cpu.obj
 0002:00014154       ??_R3ios_base@std@@8       10149154     cpu.obj
 0002:00014168       ??_R1A@?0A@EA@ios_base@std@@8 10149168     cpu.obj
 0002:0001418c       ??_R2?$basic_ios@DU?$char_traits@D@std@@@std@@8 1014918c     cpu.obj
 0002:000141a0       ??_R3?$basic_ios@DU?$char_traits@D@std@@@std@@8 101491a0     cpu.obj
 0002:000141b4       ??_R1A@A@3FA@?$basic_ios@DU?$char_traits@D@std@@@std@@8 101491b4     cpu.obj
 0002:000141d8       ??_R1A@A@3EA@ios_base@std@@8 101491d8     cpu.obj
 0002:000141fc       ??_R17A@3EA@?$_Iosb@H@std@@8 101491fc     cpu.obj
 0002:00014220       ??_R2?$basic_istream@DU?$char_traits@D@std@@@std@@8 10149220     cpu.obj
 0002:00014238       ??_R3?$basic_istream@DU?$char_traits@D@std@@@std@@8 10149238     cpu.obj
 0002:0001424c       ??_R1A@?0A@EA@?$basic_istream@DU?$char_traits@D@std@@@std@@8 1014924c     cpu.obj
 0002:00014270       ??_R2?$basic_istringstream@DU?$char_traits@D@std@@V?$allocator@D@2@@std@@8 10149270     cpu.obj
 0002:0001428c       ??_R3?$basic_istringstream@DU?$char_traits@D@std@@V?$allocator@D@2@@std@@8 1014928c     cpu.obj
 0002:000142a0       ??_R4?$basic_istringstream@DU?$char_traits@D@std@@V?$allocator@D@2@@std@@6B@ 101492a0     cpu.obj
 0002:000142b8       ??_R1A@?0A@EA@?$basic_stringbuf@DU?$char_traits@D@std@@V?$allocator@D@2@@std@@8 101492b8     cpu.obj
 0002:000142dc       ??_R2?$basic_streambuf@DU?$char_traits@D@std@@@std@@8 101492dc     cpu.obj
 0002:000142e8       ??_R3?$basic_streambuf@DU?$char_traits@D@std@@@std@@8 101492e8     cpu.obj
 0002:000142fc       ??_R1A@?0A@EA@?$basic_streambuf@DU?$char_traits@D@std@@@std@@8 101492fc     cpu.obj
 0002:00014320       ??_R2?$basic_stringbuf@DU?$char_traits@D@std@@V?$allocator@D@2@@std@@8 10149320     cpu.obj
 0002:00014330       ??_R3?$basic_stringbuf@DU?$char_traits@D@std@@V?$allocator@D@2@@std@@8 10149330     cpu.obj
 0002:00014344       ??_R4?$basic_stringbuf@DU?$char_traits@D@std@@V?$allocator@D@2@@std@@6B@ 10149344     cpu.obj
 0002:0001435c       ??_R1A@?0A@EA@MEMORY@@8    1014935c     memory.obj
 0002:00014380       ??_R2MEMORY@@8             10149380     memory.obj
 0002:00014390       ??_R3MEMORY@@8             10149390     memory.obj
 0002:000143a4       ??_R4MEMORY@@6B@           101493a4     memory.obj
 0002:000143bc       ??_R1A@?0A@EA@IllegalPageHandler@@8 101493bc     memory.obj
 0002:000143e0       ??_R2IllegalPageHandler@@8 101493e0     memory.obj
 0002:000143f0       ??_R3IllegalPageHandler@@8 101493f0     memory.obj
 0002:00014404       ??_R4IllegalPageHandler@@6B@ 10149404     memory.obj
 0002:0001441c       ??_R1A@?0A@EA@RAMPageHandler@@8 1014941c     memory.obj
 0002:00014440       ??_R2RAMPageHandler@@8     10149440     memory.obj
 0002:00014450       ??_R3RAMPageHandler@@8     10149450     memory.obj
 0002:00014464       ??_R4RAMPageHandler@@6B@   10149464     memory.obj
 0002:0001447c       ??_R1A@?0A@EA@ROMPageHandler@@8 1014947c     memory.obj
 0002:000144a0       ??_R2ROMPageHandler@@8     101494a0     memory.obj
 0002:000144b4       ??_R3ROMPageHandler@@8     101494b4     memory.obj
 0002:000144c8       ??_R4ROMPageHandler@@6B@   101494c8     memory.obj
 0002:000144e0       ??_R1A@?0A@EA@PAGING@@8    101494e0     paging.obj
 0002:00014504       ??_R2PAGING@@8             10149504     paging.obj
 0002:00014514       ??_R3PAGING@@8             10149514     paging.obj
 0002:00014528       ??_R4PAGING@@6B@           10149528     paging.obj
 0002:00014540       ??_R1A@?0A@EA@InitPageHandler@@8 10149540     paging.obj
 0002:00014564       ??_R2InitPageHandler@@8    10149564     paging.obj
 0002:00014574       ??_R3InitPageHandler@@8    10149574     paging.obj
 0002:00014588       ??_R4InitPageHandler@@6B@  10149588     paging.obj
 0002:000145a0       ??_R1A@?0A@EA@InitPageUserROHandler@@8 101495a0     paging.obj
 0002:000145c4       ??_R2InitPageUserROHandler@@8 101495c4     paging.obj
 0002:000145d4       ??_R3InitPageUserROHandler@@8 101495d4     paging.obj
 0002:000145e8       ??_R4InitPageUserROHandler@@6B@ 101495e8     paging.obj
 0002:00014600       ??_R1A@?0A@EA@Section_prop@@8 10149600     setup.obj
 0002:00014624       ??_R2Section@@8            10149624     setup.obj
 0002:00014630       ??_R3Section@@8            10149630     setup.obj
 0002:00014644       ??_R1A@?0A@EA@Section@@8   10149644     setup.obj
 0002:00014668       ??_R2Section_prop@@8       10149668     setup.obj
 0002:00014678       ??_R3Section_prop@@8       10149678     setup.obj
 0002:0001468c       ??_R4Section_prop@@6B@     1014968c     setup.obj
 0002:000146a4       ??_R1A@?0A@EA@?$basic_ostringstream@DU?$char_traits@D@std@@V?$allocator@D@2@@std@@8 101496a4     setup.obj
 0002:000146c8       ??_R2?$basic_ostream@DU?$char_traits@D@std@@@std@@8 101496c8     setup.obj
 0002:000146e0       ??_R3?$basic_ostream@DU?$char_traits@D@std@@@std@@8 101496e0     setup.obj
 0002:000146f4       ??_R1A@?0A@EA@?$basic_ostream@DU?$char_traits@D@std@@@std@@8 101496f4     setup.obj
 0002:00014718       ??_R2?$basic_ostringstream@DU?$char_traits@D@std@@V?$allocator@D@2@@std@@8 10149718     setup.obj
 0002:00014734       ??_R3?$basic_ostringstream@DU?$char_traits@D@std@@V?$allocator@D@2@@std@@8 10149734     setup.obj
 0002:00014748       ??_R4?$basic_ostringstream@DU?$char_traits@D@std@@V?$allocator@D@2@@std@@6B@ 10149748     setup.obj
 0002:00014760       ??_R1A@?0A@EA@Prop_int@@8  10149760     setup.obj
 0002:00014784       ??_R2Property@@8           10149784     setup.obj
 0002:00014790       ??_R3Property@@8           10149790     setup.obj
 0002:000147a4       ??_R1A@?0A@EA@Property@@8  101497a4     setup.obj
 0002:000147c8       ??_R2Prop_int@@8           101497c8     setup.obj
 0002:000147d8       ??_R3Prop_int@@8           101497d8     setup.obj
 0002:000147ec       ??_R4Prop_int@@6B@         101497ec     setup.obj
 0002:00014804       ??_R1A@?0A@EA@Prop_string@@8 10149804     setup.obj
 0002:00014828       ??_R2Prop_string@@8        10149828     setup.obj
 0002:00014838       ??_R3Prop_string@@8        10149838     setup.obj
 0002:0001484c       ??_R4Prop_string@@6B@      1014984c     setup.obj
 0002:00014864       ??_R1A@?0A@EA@Prop_path@@8 10149864     setup.obj
 0002:00014888       ??_R2Prop_path@@8          10149888     setup.obj
 0002:0001489c       ??_R3Prop_path@@8          1014989c     setup.obj
 0002:000148b0       ??_R4Prop_path@@6B@        101498b0     setup.obj
 0002:000148c8       ??_R1A@?0A@EA@Prop_bool@@8 101498c8     setup.obj
 0002:000148ec       ??_R2Prop_bool@@8          101498ec     setup.obj
 0002:000148fc       ??_R3Prop_bool@@8          101498fc     setup.obj
 0002:00014910       ??_R4Prop_bool@@6B@        10149910     setup.obj
 0002:00014928       ??_R1A@?0A@EA@Prop_hex@@8  10149928     setup.obj
 0002:0001494c       ??_R2Prop_hex@@8           1014994c     setup.obj
 0002:0001495c       ??_R3Prop_hex@@8           1014995c     setup.obj
 0002:00014970       ??_R4Prop_hex@@6B@         10149970     setup.obj
 0002:00014988       ??_R1A@?0A@EA@Prop_multival@@8 10149988     setup.obj
 0002:000149ac       ??_R2Prop_multival@@8      101499ac     setup.obj
 0002:000149bc       ??_R3Prop_multival@@8      101499bc     setup.obj
 0002:000149d0       ??_R4Prop_multival@@6B@    101499d0     setup.obj
 0002:000149e8       ??_R1A@?0A@EA@Prop_multival_remain@@8 101499e8     setup.obj
 0002:00014a0c       ??_R2Prop_multival_remain@@8 10149a0c     setup.obj
 0002:00014a20       ??_R3Prop_multival_remain@@8 10149a20     setup.obj
 0002:00014a34       ??_R4Prop_multival_remain@@6B@ 10149a34     setup.obj
 0002:00014a4c       ??_R4Section@@6B@          10149a4c     setup.obj
 0002:00014a64       ??_R1A@?0A@EA@Section_line@@8 10149a64     setup.obj
 0002:00014a88       ??_R2Section_line@@8       10149a88     setup.obj
 0002:00014a98       ??_R3Section_line@@8       10149a98     setup.obj
 0002:00014aac       ??_R4Section_line@@6B@     10149aac     setup.obj
 0002:00014ac4       ??_R1A@?0A@EA@?$basic_ifstream@DU?$char_traits@D@std@@@std@@8 10149ac4     setup.obj
 0002:00014ae8       ??_R2?$basic_ifstream@DU?$char_traits@D@std@@@std@@8 10149ae8     setup.obj
 0002:00014b04       ??_R3?$basic_ifstream@DU?$char_traits@D@std@@@std@@8 10149b04     setup.obj
 0002:00014b18       ??_R4?$basic_ifstream@DU?$char_traits@D@std@@@std@@6B@ 10149b18     setup.obj
 0002:00014b30       ??_R4Property@@6B@         10149b30     setup.obj
 0002:00014b48       ??_R1A@?0A@EA@?$basic_filebuf@DU?$char_traits@D@std@@@std@@8 10149b48     setup.obj
 0002:00014b6c       ??_R2?$basic_filebuf@DU?$char_traits@D@std@@@std@@8 10149b6c     setup.obj
 0002:00014b7c       ??_R3?$basic_filebuf@DU?$char_traits@D@std@@@std@@8 10149b7c     setup.obj
 0002:00014b90       ??_R4?$basic_filebuf@DU?$char_traits@D@std@@@std@@6B@ 10149b90     setup.obj
 0002:00014ba8       ??_R1A@?0A@EA@type_info@@8 10149ba8     MSVCRTD:ti_inst.obj
 0002:00014bc4       ??_R2type_info@@8          10149bc4     MSVCRTD:ti_inst.obj
 0002:00014bcc       ??_R3type_info@@8          10149bcc     MSVCRTD:ti_inst.obj
 0002:00014bdc       ??_R4type_info@@6B@        10149bdc     MSVCRTD:ti_inst.obj
 0002:00014d5c       __rtc_iaa                  10149d5c     MSVCRTD:initsect.obj
 0002:00014fb8       __rtc_izz                  10149fb8     MSVCRTD:initsect.obj
 0002:000150bc       __rtc_taa                  1014a0bc     MSVCRTD:initsect.obj
 0002:00015318       __rtc_tzz                  1014a318     MSVCRTD:initsect.obj
 0002:00024af0       _CT??_R0?AVWrongType@Value@@@81 10159af0     setup.obj
 0002:00024b10       _CTA1?AVWrongType@Value@@  10159b10     setup.obj
 0002:00024b18       _TI1?AVWrongType@Value@@   10159b18     setup.obj
 0002:00024b2c       _CT??_R0?AVbad_cast@std@@@8??0bad_cast@std@@QAA@ABV01@@Z12 10159b2c     setup.obj
 0002:00024b4c       _CT??_R0?AVexception@std@@@8??0exception@std@@QAA@ABV01@@Z12 10159b4c     setup.obj
 0002:00024b6c       _CTA2?AVbad_cast@std@@     10159b6c     setup.obj
 0002:00024b7c       _TI2?AVbad_cast@std@@      10159b7c     setup.obj
 0002:00024b90       _CT??_R0PAD@84             10159b90     support.obj
 0002:00024bb0       _CT??_R0PAX@84             10159bb0     support.obj
 0002:00024bd0       _CTA2PAD                   10159bd0     support.obj
 0002:00024be0       _TI2PAD                    10159be0     support.obj
 0003:00000028       ??_R0?AV_Generic_error_category@std@@@8 1015a028     core_dynrec.obj
 0003:0000005c       ??_R0?AVerror_category@std@@@8 1015a05c     core_dynrec.obj
 0003:00000084       ??_R0?AV_Iostream_error_category@std@@@8 1015a084     core_dynrec.obj
 0003:000000b8       ??_R0?AV_System_error_category@std@@@8 1015a0b8     core_dynrec.obj
 0003:000000ec       ??_R0?AVCodePageHandlerDynRec@@@8 1015a0ec     core_dynrec.obj
 0003:00000118       ??_R0?AVPageHandler@@@8    1015a118     core_dynrec.obj
 0003:00003450       ?CPU_CycleLeft@@3JA        1015d450     cpu.obj
 0003:00003454       ?CPU_CycleMax@@3JA         1015d454     cpu.obj
 0003:00003458       ?CPU_OldCycleMax@@3JA      1015d458     cpu.obj
 0003:0000345c       ?CPU_CyclePercUsed@@3JA    1015d45c     cpu.obj
 0003:00003460       ?CPU_CycleLimit@@3JA       1015d460     cpu.obj
 0003:00003464       ?CPU_ArchitectureType@@3IA 1015d464     cpu.obj
 0003:0000346c       ??_R0?AVCPU@@@8            1015d46c     cpu.obj
 0003:00003484       ??_R0?AVModule_base@@@8    1015d484     cpu.obj
 0003:000034a8       ??_R0?AV?$basic_istringstream@DU?$char_traits@D@std@@V?$allocator@D@2@@std@@@8 1015d4a8     cpu.obj
 0003:0000350c       ??_R0?AV?$basic_istream@DU?$char_traits@D@std@@@std@@@8 1015d50c     cpu.obj
 0003:00003554       ??_R0?AV?$basic_ios@DU?$char_traits@D@std@@@std@@@8 1015d554     cpu.obj
 0003:00003594       ??_R0?AVios_base@std@@@8   1015d594     cpu.obj
 0003:000035b4       ??_R0?AV?$_Iosb@H@std@@@8  1015d5b4     cpu.obj
 0003:000035d8       ??_R0?AV?$basic_stringbuf@DU?$char_traits@D@std@@V?$allocator@D@2@@std@@@8 1015d5d8     cpu.obj
 0003:00003634       ??_R0?AV?$basic_streambuf@DU?$char_traits@D@std@@@std@@@8 1015d634     cpu.obj
 0003:00003680       ?parity_lookup@@3PAGA      1015d680     flags.obj
 0003:000038e8       ??_R0?AVMEMORY@@@8         1015d8e8     memory.obj
 0003:00003904       ??_R0?AVIllegalPageHandler@@@8 1015d904     memory.obj
 0003:0000392c       ??_R0?AVRAMPageHandler@@@8 1015d92c     memory.obj
 0003:00003950       ??_R0?AVROMPageHandler@@@8 1015d950     memory.obj
 0003:00003978       ?lookupRMregMM@@3PAPATMMX_reg@@A 1015d978     mmx.obj
 0003:00003e48       ?lookupRMregb@@3PAPAEA     1015de48     modrm.obj
 0003:00004248       ?lookupRMregw@@3PAPAGA     1015e248     modrm.obj
 0003:00004648       ?lookupRMregd@@3PAPAKA     1015e648     modrm.obj
 0003:00004a48       ?lookupRMEAregb@@3PAPAEA   1015ea48     modrm.obj
 0003:00004e48       ?lookupRMEAregw@@3PAPAGA   1015ee48     modrm.obj
 0003:00005248       ?lookupRMEAregd@@3PAPAKA   1015f248     modrm.obj
 0003:00005b14       ??_R0?AVPAGING@@@8         1015fb14     paging.obj
 0003:00005b30       ??_R0?AVInitPageHandler@@@8 1015fb30     paging.obj
 0003:00005b54       ??_R0?AVInitPageUserROHandler@@@8 1015fb54     paging.obj
 0003:00005b80       ??_R0?AVWrongType@Value@@@8 1015fb80     setup.obj
 0003:00005ba4       ??_R0?AVProp_path@@@8      1015fba4     setup.obj
 0003:00005bc0       ??_R0?AVProperty@@@8       1015fbc0     setup.obj
 0003:00005bdc       ??_R0?AVProp_multival@@@8  1015fbdc     setup.obj
 0003:00005c00       ??_R0?AVProp_multival_remain@@@8 1015fc00     setup.obj
 0003:00005c2c       ??_R0?AVSection_prop@@@8   1015fc2c     setup.obj
 0003:00005c4c       ??_R0?AVSection@@@8        1015fc4c     setup.obj
 0003:00005c68       ??_R0PAD@8                 1015fc68     setup.obj
 0003:00005c78       ??_R0?AV?$basic_ostringstream@DU?$char_traits@D@std@@V?$allocator@D@2@@std@@@8 1015fc78     setup.obj
 0003:00005cdc       ??_R0?AV?$basic_ostream@DU?$char_traits@D@std@@@std@@@8 1015fcdc     setup.obj
 0003:00005d24       ??_R0?AVProp_int@@@8       1015fd24     setup.obj
 0003:00005d40       ??_R0?AVProp_string@@@8    1015fd40     setup.obj
 0003:00005d60       ??_R0?AVProp_bool@@@8      1015fd60     setup.obj
 0003:00005d7c       ??_R0?AVProp_hex@@@8       1015fd7c     setup.obj
 0003:00005d98       ??_R0?AVSection_line@@@8   1015fd98     setup.obj
 0003:00005db8       ??_R0?AV?$basic_ifstream@DU?$char_traits@D@std@@@std@@@8 1015fdb8     setup.obj
 0003:00005e00       ??_R0?AV?$basic_filebuf@DU?$char_traits@D@std@@@std@@@8 1015fe00     setup.obj
 0003:00005e48       ??_R0?AVbad_cast@std@@@8   1015fe48     setup.obj
 0003:00005e68       ??_R0?AVexception@std@@@8  1015fe68     setup.obj
 0003:00005e8c       ??_R0PAX@8                 1015fe8c     support.obj
 0003:00005e9c       ??_R0?AVtype_info@@@8      1015fe9c     MSVCRTD:ti_inst.obj
 0003:00005eb4       ?_RTC_ErrorLevels@@3PAHA   1015feb4     MSVCRTD:error.obj
 0003:00005ec8       __security_cookie          1015fec8     MSVCRTD:gs_cookie.obj
 0003:00005ecc       __security_cookie_complement 1015fecc     MSVCRTD:gs_cookie.obj
 0003:00005ed0       __native_dllmain_reason    1015fed0     MSVCRTD:natstart.obj
 0003:00006010       ?CallBack_Description@@3PAPADA 10160010     callback.obj
 0003:00006210       ?CallBack_Handlers@@3PAP6AIXZA 10160210     callback.obj
 0003:0000641c       ?call_priv_io@@3IA         1016041c     callback.obj
 0003:000064f8       ?PrevIP@@3PAKA             101604f8     core_dynrec.obj
 0003:000069a8       ?PrevSP@@3PAKA             101609a8     core_dynrec.obj
 0003:00008ad0       ?PrevDyn@@3PAKA            10162ad0     core_dynrec.obj
 0003:00008c20       ?used_save_info_dynrec@@3IA 10162c20     core_dynrec.obj
 0003:00009420       ?id@?$num_put@_WV?$back_insert_iterator@V?$basic_string@_WU?$char_traits@_W@std@@V?$allocator@_W@2@@std@@@std@@@std@@2V0locale@2@A 10163420     core_dynrec.obj
 0003:00009424       ?_System_object@?$_Error_objects@H@std@@2V_System_error_category@2@A 10163424     core_dynrec.obj
 0003:00009428       ?id@?$num_put@DV?$back_insert_iterator@V?$basic_string@DU?$char_traits@D@std@@V?$allocator@D@2@@std@@@std@@@std@@2V0locale@2@A 10163428     core_dynrec.obj
 0003:0000942c       ?_Generic_object@?$_Error_objects@H@std@@2V_Generic_error_category@2@A 1016342c     core_dynrec.obj
 0003:00009430       ?_Iostream_object@?$_Error_objects@H@std@@2V_Iostream_error_category@2@A 10163430     core_dynrec.obj
 0003:00009458       ?cycle_count@@3IA          10163458     core_normal.obj
 0003:000094f0       ?cpudecoder@@3P6AHXZA      101634f0     cpu.obj
 0003:000094f4       ?lastint@@3EA              101634f4     cpu.obj
 0003:000094f5       ?inited@CPU@@0_NA          101634f5     cpu.obj
 0003:000094f7       ?CPU_CycleAutoAdjust@@3_NA 101634f7     cpu.obj
 0003:000094fc       ?CPU_CycleUp@@3JA          101634fc     cpu.obj
 0003:00009500       ?Segs@@3USegments@@A       10163500     cpu.obj
 0003:00009540       ?cpu_regs@@3UCPU_Regs@@A   10163540     cpu.obj
 0003:00009568       ?cpu@@3UCPUBlock@@A        10163568     cpu.obj
 0003:00009600       ?CPU_CycleDown@@3JA        10163600     cpu.obj
 0003:00009604       ?CPU_flag_id_toggle@@3IA   10163604     cpu.obj
 0003:00009608       ?CPU_Cycles@@3JA           10163608     cpu.obj
 0003:0000960c       ?CPU_SkipCycleAutoAdjust@@3_NA 1016360c     cpu.obj
 0003:00009610       ?CPU_IODelayRemoved@@3_JA  10163610     cpu.obj
 0003:00009618       ?CPU_AutoDetermineMode@@3IA 10163618     cpu.obj
 0003:0000961c       ?CPU_PrefetchQueueSize@@3IA 1016361c     cpu.obj
 0003:00009620       ?cpu_tss@@3VTaskStateSegment@@A 10163620     cpu.obj
 0003:00009948       ?DoOut@@3_NA               10163948     dosbox_emu.obj
 0003:00009960       ?PIC_IRQCheck@@3IA         10163960     dosbox_emu.obj
 0003:00009964       ?PIC_Ticks@@3IA            10163964     dosbox_emu.obj
 0003:00009968       ?control@@3PAVConfig@@A    10163968     dosbox_emu.obj
 0003:0000996c       ?StackList@@3VCList@@A     1016396c     dosbox_emu.obj
 0003:000099e4       ?lflags@@3ULazyFlags@@A    101639e4     flags.obj
 0003:00009a00       ?fpu@@3UFPU_rec@@A         10163a00     fpu.obj
 0003:00021ba4       ?lcount@?1??readb@IllegalPageHandler@@UAAIK@Z@4HA 1017bba4     memory.obj
 0003:00021ba8       ?lcount@?1??writeb@IllegalPageHandler@@UAAXKI@Z@4HA 1017bba8     memory.obj
 0003:00021bc0       ?reg_mmx@@3PATMMX_reg@@A   1017bbc0     mmx.obj
 0003:00021d18       ?paging@@3UPagingBlock@@A  1017bd18     paging.obj
 0003:00181d70       ?first@@3_NA               102dbd70     paging.obj
 0003:001c8434       ?_Psave@?$_Facetptr@V?$ctype@D@std@@@std@@2PBVfacet@locale@2@B 10322434     setup.obj
 0003:001c8438       ?_Stinit@?1??_Init@?$basic_filebuf@DU?$char_traits@D@std@@@std@@IAAXPAU_iobuf@@W4_Initfl@23@@Z@4HA 10322438     setup.obj
 0003:001c843c       ?_Psave@?$_Facetptr@V?$codecvt@DDH@std@@@std@@2PBVfacet@locale@2@B 1032243c     setup.obj
 0003:001c8468       __@@_PchSym_@00@UwbmznrxgizmhozgliUbzxgUwlhylcPvnfUzinUwvyftUhgwzucOlyq@AD2C3579F8C528F3 10322468     stdafx.obj
 0003:001c8940       ?wsprintffp@@3P6AHPADPBDZZA 10322940     MSVCRTD:error.obj
 0003:001c8b4c       ?__type_info_root_node@@3U__type_info_node@@A 10322b4c     MSVCRTD:tncleanup.obj
 0003:001c8b5c       __native_startup_lock      10322b5c     <common>
 0003:001c8b6c       __native_startup_state     10322b6c     <common>
 0003:001c8b70       __dyn_tls_init_callback    10322b70     <common>
 0003:001c8b7c       __onexitbegin              10322b7c     <common>
 0003:001c8b8c       __onexitend                10322b8c     <common>
 0005:00000000       __IMPORT_DESCRIPTOR_KERNEL32 1032a000     kernel32:KERNEL32.dll
 0005:00000014       __IMPORT_DESCRIPTOR_SHELL32 1032a014     shell32:SHELL32.dll
 0005:00000028       __IMPORT_DESCRIPTOR_cbacks.nt 1032a028     cbacks.nt:cbacks.nt.dll
 0005:0000003c       __IMPORT_DESCRIPTOR_peldr.nt 1032a03c     peldr.nt:peldr.nt.dll
 0005:00000050       __IMPORT_DESCRIPTOR_supp.nt 1032a050     supp.nt:supp.nt.dll
 0005:00000064       __IMPORT_DESCRIPTOR_x86_emu 1032a064     x86_emu:x86_emu.dll
 0005:00000078       __IMPORT_DESCRIPTOR_MSVCR110D 1032a078     MSVCRTD:MSVCR110D.dll
 0005:0000008c       __IMPORT_DESCRIPTOR_MSVCP110D 1032a08c     msvcprtd:MSVCP110D.dll
 0005:000000a0       __NULL_IMPORT_DESCRIPTOR   1032a0a0     kernel32:KERNEL32.dll
 0005:0000068c       __imp_VirtualAlloc         1032a68c     kernel32:KERNEL32.dll
 0005:00000690       __imp_VirtualProtect       1032a690     kernel32:KERNEL32.dll
 0005:00000694       __imp_GetCurrentProcess    1032a694     kernel32:KERNEL32.dll
 0005:00000698       __imp_FlushInstructionCache 1032a698     kernel32:KERNEL32.dll
 0005:0000069c       __imp_FindFirstFileA       1032a69c     kernel32:KERNEL32.dll
 0005:000006a0       __imp_FindNextFileA        1032a6a0     kernel32:KERNEL32.dll
 0005:000006a4       __imp_FindClose            1032a6a4     kernel32:KERNEL32.dll
 0005:000006a8       __imp_LoadLibraryA         1032a6a8     kernel32:KERNEL32.dll
 0005:000006ac       __imp_GetLastError         1032a6ac     kernel32:KERNEL32.dll
 0005:000006b0       __imp_GetProcAddress       1032a6b0     kernel32:KERNEL32.dll
 0005:000006b4       __imp_ExitProcess          1032a6b4     kernel32:KERNEL32.dll
 0005:000006b8       __imp_VirtualFree          1032a6b8     kernel32:KERNEL32.dll
 0005:000006bc       __imp_EnterCriticalSection 1032a6bc     kernel32:KERNEL32.dll
 0005:000006c0       __imp_LeaveCriticalSection 1032a6c0     kernel32:KERNEL32.dll
 0005:000006c4       __imp_InitializeCriticalSection 1032a6c4     kernel32:KERNEL32.dll
 0005:000006c8       __imp_DeleteCriticalSection 1032a6c8     kernel32:KERNEL32.dll
 0005:000006cc       __imp_LoadLibraryExW       1032a6cc     kernel32:KERNEL32.dll
 0005:000006d0       __imp_DecodePointer        1032a6d0     kernel32:KERNEL32.dll
 0005:000006d4       __imp_QueryPerformanceCounter 1032a6d4     kernel32:KERNEL32.dll
 0005:000006d8       __imp_GetTickCount64       1032a6d8     kernel32:KERNEL32.dll
 0005:000006dc       __imp_GetCurrentProcessId  1032a6dc     kernel32:KERNEL32.dll
 0005:000006e0       __imp_GetCurrentThreadId   1032a6e0     kernel32:KERNEL32.dll
 0005:000006e4       __imp_GetSystemTimeAsFileTime 1032a6e4     kernel32:KERNEL32.dll
 0005:000006e8       __imp_FreeLibrary          1032a6e8     kernel32:KERNEL32.dll
 0005:000006ec       __imp_LoadLibraryW         1032a6ec     kernel32:KERNEL32.dll
 0005:000006f0       __imp_GetModuleHandleW     1032a6f0     kernel32:KERNEL32.dll
 0005:000006f4       __imp_HeapFree             1032a6f4     kernel32:KERNEL32.dll
 0005:000006f8       __imp_GetProcessHeap       1032a6f8     kernel32:KERNEL32.dll
 0005:000006fc       __imp_HeapAlloc            1032a6fc     kernel32:KERNEL32.dll
 0005:00000700       __imp_GetModuleFileNameW   1032a700     kernel32:KERNEL32.dll
 0005:00000704       __imp_VirtualQuery         1032a704     kernel32:KERNEL32.dll
 0005:00000708       __imp_RaiseException       1032a708     kernel32:KERNEL32.dll
 0005:0000070c       __imp_WideCharToMultiByte  1032a70c     kernel32:KERNEL32.dll
 0005:00000710       __imp_IsDebuggerPresent    1032a710     kernel32:KERNEL32.dll
 0005:00000714       __imp_MultiByteToWideChar  1032a714     kernel32:KERNEL32.dll
 0005:00000718       __imp_EncodePointer        1032a718     kernel32:KERNEL32.dll
 0005:0000071c       __imp_lstrlenA             1032a71c     kernel32:KERNEL32.dll
 0005:00000720       \177KERNEL32_NULL_THUNK_DATA 1032a720     kernel32:KERNEL32.dll
 0005:00000768       __imp_?_Xbad_alloc@std@@YAXXZ 1032a768     msvcprtd:MSVCP110D.dll
 0005:0000076c       __imp_??3@YAXPAXABU_DebugHeapTag_t@std@@PADH@Z 1032a76c     msvcprtd:MSVCP110D.dll
 0005:00000770       __imp_??2@YAPAXIABU_DebugHeapTag_t@std@@PADH@Z 1032a770     msvcprtd:MSVCP110D.dll
 0005:00000774       __imp_?_DebugHeapTag_func@std@@YAABU_DebugHeapTag_t@1@XZ 1032a774     msvcprtd:MSVCP110D.dll
 0005:00000778       __imp_?unshift@?$codecvt@DDH@std@@QBAHAAHPAD1AAPAD@Z 1032a778     msvcprtd:MSVCP110D.dll
 0005:0000077c       __imp_?_Getgloballocale@locale@std@@CAPAV_Locimp@12@XZ 1032a77c     msvcprtd:MSVCP110D.dll
 0005:00000780       __imp_?always_noconv@codecvt_base@std@@QBA_NXZ 1032a780     msvcprtd:MSVCP110D.dll
 0005:00000784       __imp_?_Getcat@?$codecvt@DDH@std@@SAIPAPBVfacet@locale@2@PBV42@@Z 1032a784     msvcprtd:MSVCP110D.dll
 0005:00000788       __imp_?id@?$codecvt@DDH@std@@2V0locale@2@A 1032a788     msvcprtd:MSVCP110D.dll
 0005:0000078c       __imp_?_Init@?$basic_streambuf@DU?$char_traits@D@std@@@std@@IAAXPAPAD0PAH001@Z 1032a78c     msvcprtd:MSVCP110D.dll
 0005:00000790       __imp_?_Init@?$basic_streambuf@DU?$char_traits@D@std@@@std@@IAAXXZ 1032a790     msvcprtd:MSVCP110D.dll
 0005:00000794       __imp_?in@?$codecvt@DDH@std@@QBAHAAHPBD1AAPBDPAD3AAPAD@Z 1032a794     msvcprtd:MSVCP110D.dll
 0005:00000798       __imp_?_Gninc@?$basic_streambuf@DU?$char_traits@D@std@@@std@@IAAPADXZ 1032a798     msvcprtd:MSVCP110D.dll
 0005:0000079c       __imp_?_Gndec@?$basic_streambuf@DU?$char_traits@D@std@@@std@@IAAPADXZ 1032a79c     msvcprtd:MSVCP110D.dll
 0005:000007a0       __imp_?out@?$codecvt@DDH@std@@QBAHAAHPBD1AAPBDPAD3AAPAD@Z 1032a7a0     msvcprtd:MSVCP110D.dll
 0005:000007a4       __imp_?_Getcat@?$ctype@D@std@@SAIPAPBVfacet@locale@2@PBV42@@Z 1032a7a4     msvcprtd:MSVCP110D.dll
 0005:000007a8       __imp_??Bid@locale@std@@QAAIXZ 1032a7a8     msvcprtd:MSVCP110D.dll
 0005:000007ac       __imp_?id@?$ctype@D@std@@2V0locale@2@A 1032a7ac     msvcprtd:MSVCP110D.dll
 0005:000007b0       __imp_?_Ipfx@?$basic_istream@DU?$char_traits@D@std@@@std@@QAA_N_N@Z 1032a7b0     msvcprtd:MSVCP110D.dll
 0005:000007b4       __imp_?sbumpc@?$basic_streambuf@DU?$char_traits@D@std@@@std@@QAAHXZ 1032a7b4     msvcprtd:MSVCP110D.dll
 0005:000007b8       __imp_?getloc@?$basic_streambuf@DU?$char_traits@D@std@@@std@@QBA?AVlocale@2@XZ 1032a7b8     msvcprtd:MSVCP110D.dll
 0005:000007bc       __imp_?_Fiopen@std@@YAPAU_iobuf@@PBDHH@Z 1032a7bc     msvcprtd:MSVCP110D.dll
 0005:000007c0       __imp_?_Osfx@?$basic_ostream@DU?$char_traits@D@std@@@std@@QAAXXZ 1032a7c0     msvcprtd:MSVCP110D.dll
 0005:000007c4       __imp_?uncaught_exception@std@@YA_NXZ 1032a7c4     msvcprtd:MSVCP110D.dll
 0005:000007c8       __imp_?flush@?$basic_ostream@DU?$char_traits@D@std@@@std@@QAAAAV12@XZ 1032a7c8     msvcprtd:MSVCP110D.dll
 0005:000007cc       __imp_?tie@?$basic_ios@DU?$char_traits@D@std@@@std@@QBAPAV?$basic_ostream@DU?$char_traits@D@std@@@2@XZ 1032a7cc     msvcprtd:MSVCP110D.dll
 0005:000007d0       __imp_?good@ios_base@std@@QBA_NXZ 1032a7d0     msvcprtd:MSVCP110D.dll
 0005:000007d4       __imp_?_Add_vtordisp2@?$basic_ostream@DU?$char_traits@D@std@@@std@@UAAXXZ 1032a7d4     msvcprtd:MSVCP110D.dll
 0005:000007d8       __imp_?is@?$ctype@D@std@@QBA_NFD@Z 1032a7d8     msvcprtd:MSVCP110D.dll
 0005:000007dc       __imp_?snextc@?$basic_streambuf@DU?$char_traits@D@std@@@std@@QAAHXZ 1032a7dc     msvcprtd:MSVCP110D.dll
 0005:000007e0       __imp_?sgetc@?$basic_streambuf@DU?$char_traits@D@std@@@std@@QAAHXZ 1032a7e0     msvcprtd:MSVCP110D.dll
 0005:000007e4       __imp_?getloc@ios_base@std@@QBA?AVlocale@2@XZ 1032a7e4     msvcprtd:MSVCP110D.dll
 0005:000007e8       __imp_?widen@?$basic_ios@DU?$char_traits@D@std@@@std@@QBADD@Z 1032a7e8     msvcprtd:MSVCP110D.dll
 0005:000007ec       __imp_?setf@ios_base@std@@QAAHHH@Z 1032a7ec     msvcprtd:MSVCP110D.dll
 0005:000007f0       __imp_?setstate@?$basic_ios@DU?$char_traits@D@std@@@std@@QAAXH_N@Z 1032a7f0     msvcprtd:MSVCP110D.dll
 0005:000007f4       __imp_?width@ios_base@std@@QAA_J_J@Z 1032a7f4     msvcprtd:MSVCP110D.dll
 0005:000007f8       __imp_?sputn@?$basic_streambuf@DU?$char_traits@D@std@@@std@@QAA_JPBD_J@Z 1032a7f8     msvcprtd:MSVCP110D.dll
 0005:000007fc       __imp_?sputc@?$basic_streambuf@DU?$char_traits@D@std@@@std@@QAAHD@Z 1032a7fc     msvcprtd:MSVCP110D.dll
 0005:00000800       __imp_?rdbuf@?$basic_ios@DU?$char_traits@D@std@@@std@@QBAPAV?$basic_streambuf@DU?$char_traits@D@std@@@2@XZ 1032a800     msvcprtd:MSVCP110D.dll
 0005:00000804       __imp_?fill@?$basic_ios@DU?$char_traits@D@std@@@std@@QBADXZ 1032a804     msvcprtd:MSVCP110D.dll
 0005:00000808       __imp_?flags@ios_base@std@@QBAHXZ 1032a808     msvcprtd:MSVCP110D.dll
 0005:0000080c       __imp_?width@ios_base@std@@QBA_JXZ 1032a80c     msvcprtd:MSVCP110D.dll
 0005:00000810       __imp_?setf@ios_base@std@@QAAHH@Z 1032a810     msvcprtd:MSVCP110D.dll
 0005:00000814       __imp_??1?$basic_ostream@DU?$char_traits@D@std@@@std@@UAA@XZ 1032a814     msvcprtd:MSVCP110D.dll
 0005:00000818       __imp_?_Add_vtordisp1@?$basic_ios@DU?$char_traits@D@std@@@std@@UAAXXZ 1032a818     msvcprtd:MSVCP110D.dll
 0005:0000081c       __imp_??0?$basic_ostream@DU?$char_traits@D@std@@@std@@QAA@PAV?$basic_streambuf@DU?$char_traits@D@std@@@1@_N@Z 1032a81c     msvcprtd:MSVCP110D.dll
 0005:00000820       __imp_??Bios_base@std@@QBAPAXXZ 1032a820     msvcprtd:MSVCP110D.dll
 0005:00000824       __imp_??7ios_base@std@@QBA_NXZ 1032a824     msvcprtd:MSVCP110D.dll
 0005:00000828       __imp_??6?$basic_ostream@DU?$char_traits@D@std@@@std@@QAAAAV01@N@Z 1032a828     msvcprtd:MSVCP110D.dll
 0005:0000082c       __imp_?precision@ios_base@std@@QAA_J_J@Z 1032a82c     msvcprtd:MSVCP110D.dll
 0005:00000830       __imp_??6?$basic_ostream@DU?$char_traits@D@std@@@std@@QAAAAV01@_N@Z 1032a830     msvcprtd:MSVCP110D.dll
 0005:00000834       __imp_??6?$basic_ostream@DU?$char_traits@D@std@@@std@@QAAAAV01@P6AAAVios_base@1@AAV21@@Z@Z 1032a834     msvcprtd:MSVCP110D.dll
 0005:00000838       __imp_??6?$basic_ostream@DU?$char_traits@D@std@@@std@@QAAAAV01@H@Z 1032a838     msvcprtd:MSVCP110D.dll
 0005:0000083c       __imp_??5?$basic_istream@DU?$char_traits@D@std@@@std@@QAAAAV01@AAN@Z 1032a83c     msvcprtd:MSVCP110D.dll
 0005:00000840       __imp_?flags@ios_base@std@@QAAHH@Z 1032a840     msvcprtd:MSVCP110D.dll
 0005:00000844       __imp_??1_Lockit@std@@QAA@XZ 1032a844     msvcprtd:MSVCP110D.dll
 0005:00000848       __imp_?_Getpfirst@_Container_base12@std@@QBAPAPAU_Iterator_base12@2@XZ 1032a848     msvcprtd:MSVCP110D.dll
 0005:0000084c       __imp_??0_Lockit@std@@QAA@H@Z 1032a84c     msvcprtd:MSVCP110D.dll
 0005:00000850       __imp_?pbump@?$basic_streambuf@DU?$char_traits@D@std@@@std@@IAAXH@Z 1032a850     msvcprtd:MSVCP110D.dll
 0005:00000854       __imp_?_BADOFF@std@@3_JB   1032a854     msvcprtd:MSVCP110D.dll
 0005:00000858       __imp_?egptr@?$basic_streambuf@DU?$char_traits@D@std@@@std@@IBAPADXZ 1032a858     msvcprtd:MSVCP110D.dll
 0005:0000085c       __imp_?gbump@?$basic_streambuf@DU?$char_traits@D@std@@@std@@IAAXH@Z 1032a85c     msvcprtd:MSVCP110D.dll
 0005:00000860       __imp_?gptr@?$basic_streambuf@DU?$char_traits@D@std@@@std@@IBAPADXZ 1032a860     msvcprtd:MSVCP110D.dll
 0005:00000864       __imp_?setg@?$basic_streambuf@DU?$char_traits@D@std@@@std@@IAAXPAD00@Z 1032a864     msvcprtd:MSVCP110D.dll
 0005:00000868       __imp_?setp@?$basic_streambuf@DU?$char_traits@D@std@@@std@@IAAXPAD0@Z 1032a868     msvcprtd:MSVCP110D.dll
 0005:0000086c       __imp_?eback@?$basic_streambuf@DU?$char_traits@D@std@@@std@@IBAPADXZ 1032a86c     msvcprtd:MSVCP110D.dll
 0005:00000870       __imp_?_Pninc@?$basic_streambuf@DU?$char_traits@D@std@@@std@@IAAPADXZ 1032a870     msvcprtd:MSVCP110D.dll
 0005:00000874       __imp_?setp@?$basic_streambuf@DU?$char_traits@D@std@@@std@@IAAXPAD00@Z 1032a874     msvcprtd:MSVCP110D.dll
 0005:00000878       __imp_?pbase@?$basic_streambuf@DU?$char_traits@D@std@@@std@@IBAPADXZ 1032a878     msvcprtd:MSVCP110D.dll
 0005:0000087c       __imp_?epptr@?$basic_streambuf@DU?$char_traits@D@std@@@std@@IBAPADXZ 1032a87c     msvcprtd:MSVCP110D.dll
 0005:00000880       __imp_?pptr@?$basic_streambuf@DU?$char_traits@D@std@@@std@@IBAPADXZ 1032a880     msvcprtd:MSVCP110D.dll
 0005:00000884       __imp_??1?$basic_streambuf@DU?$char_traits@D@std@@@std@@UAA@XZ 1032a884     msvcprtd:MSVCP110D.dll
 0005:00000888       __imp_?imbue@?$basic_streambuf@DU?$char_traits@D@std@@@std@@MAAXABVlocale@2@@Z 1032a888     msvcprtd:MSVCP110D.dll
 0005:0000088c       __imp_?sync@?$basic_streambuf@DU?$char_traits@D@std@@@std@@MAAHXZ 1032a88c     msvcprtd:MSVCP110D.dll
 0005:00000890       __imp_?setbuf@?$basic_streambuf@DU?$char_traits@D@std@@@std@@MAAPAV12@PAD_J@Z 1032a890     msvcprtd:MSVCP110D.dll
 0005:00000894       __imp_?xsputn@?$basic_streambuf@DU?$char_traits@D@std@@@std@@MAA_JPBD_J@Z 1032a894     msvcprtd:MSVCP110D.dll
 0005:00000898       __imp_?xsgetn@?$basic_streambuf@DU?$char_traits@D@std@@@std@@MAA_JPAD_J@Z 1032a898     msvcprtd:MSVCP110D.dll
 0005:0000089c       __imp_?uflow@?$basic_streambuf@DU?$char_traits@D@std@@@std@@MAAHXZ 1032a89c     msvcprtd:MSVCP110D.dll
 0005:000008a0       __imp_?showmanyc@?$basic_streambuf@DU?$char_traits@D@std@@@std@@MAA_JXZ 1032a8a0     msvcprtd:MSVCP110D.dll
 0005:000008a4       __imp_?_Unlock@?$basic_streambuf@DU?$char_traits@D@std@@@std@@UAAXXZ 1032a8a4     msvcprtd:MSVCP110D.dll
 0005:000008a8       __imp_?_Lock@?$basic_streambuf@DU?$char_traits@D@std@@@std@@UAAXXZ 1032a8a8     msvcprtd:MSVCP110D.dll
 0005:000008ac       __imp_??0?$basic_streambuf@DU?$char_traits@D@std@@@std@@IAA@XZ 1032a8ac     msvcprtd:MSVCP110D.dll
 0005:000008b0       __imp_?_Add_vtordisp1@?$basic_istream@DU?$char_traits@D@std@@@std@@UAAXXZ 1032a8b0     msvcprtd:MSVCP110D.dll
 0005:000008b4       __imp_??1?$basic_istream@DU?$char_traits@D@std@@@std@@UAA@XZ 1032a8b4     msvcprtd:MSVCP110D.dll
 0005:000008b8       __imp_??1?$basic_ios@DU?$char_traits@D@std@@@std@@UAA@XZ 1032a8b8     msvcprtd:MSVCP110D.dll
 0005:000008bc       __imp_?_Add_vtordisp2@?$basic_ios@DU?$char_traits@D@std@@@std@@UAAXXZ 1032a8bc     msvcprtd:MSVCP110D.dll
 0005:000008c0       __imp_??0?$basic_istream@DU?$char_traits@D@std@@@std@@QAA@PAV?$basic_streambuf@DU?$char_traits@D@std@@@1@_N@Z 1032a8c0     msvcprtd:MSVCP110D.dll
 0005:000008c4       __imp_??0?$basic_ios@DU?$char_traits@D@std@@@std@@IAA@XZ 1032a8c4     msvcprtd:MSVCP110D.dll
 0005:000008c8       __imp_??5?$basic_istream@DU?$char_traits@D@std@@@std@@QAAAAV01@AAH@Z 1032a8c8     msvcprtd:MSVCP110D.dll
 0005:000008cc       __imp_??0id@locale@std@@QAA@I@Z 1032a8cc     msvcprtd:MSVCP110D.dll
 0005:000008d0       __imp_?_Syserror_map@std@@YAPBDH@Z 1032a8d0     msvcprtd:MSVCP110D.dll
 0005:000008d4       __imp_?_Winerror_map@std@@YAPBDH@Z 1032a8d4     msvcprtd:MSVCP110D.dll
 0005:000008d8       __imp_??0_Container_base12@std@@QAA@XZ 1032a8d8     msvcprtd:MSVCP110D.dll
 0005:000008dc       __imp_??1_Container_base12@std@@QAA@XZ 1032a8dc     msvcprtd:MSVCP110D.dll
 0005:000008e0       __imp_?_Debug_message@std@@YAXPB_W0I@Z 1032a8e0     msvcprtd:MSVCP110D.dll
 0005:000008e4       __imp_?_Orphan_all@_Container_base12@std@@QAAXXZ 1032a8e4     msvcprtd:MSVCP110D.dll
 0005:000008e8       __imp_?_Xlength_error@std@@YAXPBD@Z 1032a8e8     msvcprtd:MSVCP110D.dll
 0005:000008ec       __imp_?_Xout_of_range@std@@YAXPBD@Z 1032a8ec     msvcprtd:MSVCP110D.dll
 0005:000008f0       \177MSVCP110D_NULL_THUNK_DATA 1032a8f0     msvcprtd:MSVCP110D.dll
 0005:00000968       __imp___clean_type_info_names_internal 1032a968     MSVCRTD:MSVCR110D.dll
 0005:0000096c       __imp__wmakepath_s         1032a96c     MSVCRTD:MSVCR110D.dll
 0005:00000970       __imp_wcscpy_s             1032a970     MSVCRTD:MSVCR110D.dll
 0005:00000974       __imp__wsplitpath_s        1032a974     MSVCRTD:MSVCR110D.dll
 0005:00000978       __imp_?terminate@@YAXXZ    1032a978     MSVCRTD:MSVCR110D.dll
 0005:0000097c       __imp___CppXcptFilter      1032a97c     MSVCRTD:MSVCR110D.dll
 0005:00000980       __imp__free_dbg            1032a980     MSVCRTD:MSVCR110D.dll
 0005:00000984       __imp__CrtSetCheckCount    1032a984     MSVCRTD:MSVCR110D.dll
 0005:00000988       __imp__initterm            1032a988     MSVCRTD:MSVCR110D.dll
 0005:0000098c       __imp__initterm_e          1032a98c     MSVCRTD:MSVCR110D.dll
 0005:00000990       __imp_strlen               1032a990     MSVCRTD:MSVCR110D.dll
 0005:00000994       __imp__malloc_dbg          1032a994     MSVCRTD:MSVCR110D.dll
 0005:00000998       __imp_??1type_info@@UAA@XZ 1032a998     MSVCRTD:MSVCR110D.dll
 0005:0000099c       __imp__unlock              1032a99c     MSVCRTD:MSVCR110D.dll
 0005:000009a0       __imp___dllonexit          1032a9a0     MSVCRTD:MSVCR110D.dll
 0005:000009a4       __imp__lock                1032a9a4     MSVCRTD:MSVCR110D.dll
 0005:000009a8       __imp__onexit              1032a9a8     MSVCRTD:MSVCR110D.dll
 0005:000009ac       __imp__calloc_dbg          1032a9ac     MSVCRTD:MSVCR110D.dll
 0005:000009b0       __imp__CRT_RTC_INITW       1032a9b0     MSVCRTD:MSVCR110D.dll
 0005:000009b4       __imp_strchr               1032a9b4     MSVCRTD:MSVCR110D.dll
 0005:000009b8       __imp_vsprintf             1032a9b8     MSVCRTD:MSVCR110D.dll
 0005:000009bc       __imp_isspace              1032a9bc     MSVCRTD:MSVCR110D.dll
 0005:000009c0       __imp_tolower              1032a9c0     MSVCRTD:MSVCR110D.dll
 0005:000009c4       __imp_toupper              1032a9c4     MSVCRTD:MSVCR110D.dll
 0005:000009c8       __imp_fputc                1032a9c8     MSVCRTD:MSVCR110D.dll
 0005:000009cc       __imp_fflush               1032a9cc     MSVCRTD:MSVCR110D.dll
 0005:000009d0       __imp_setvbuf              1032a9d0     MSVCRTD:MSVCR110D.dll
 0005:000009d4       __imp_fsetpos              1032a9d4     MSVCRTD:MSVCR110D.dll
 0005:000009d8       __imp_fgetpos              1032a9d8     MSVCRTD:MSVCR110D.dll
 0005:000009dc       __imp__fseeki64            1032a9dc     MSVCRTD:MSVCR110D.dll
 0005:000009e0       __imp_memcpy_s             1032a9e0     MSVCRTD:MSVCR110D.dll
 0005:000009e4       __imp_ungetc               1032a9e4     MSVCRTD:MSVCR110D.dll
 0005:000009e8       __imp_fgetc                1032a9e8     MSVCRTD:MSVCR110D.dll
 0005:000009ec       __imp_fwrite               1032a9ec     MSVCRTD:MSVCR110D.dll
 0005:000009f0       __imp__unlock_file         1032a9f0     MSVCRTD:MSVCR110D.dll
 0005:000009f4       __imp__lock_file           1032a9f4     MSVCRTD:MSVCR110D.dll
 0005:000009f8       __imp_??0exception@std@@QAA@ABV01@@Z 1032a9f8     MSVCRTD:MSVCR110D.dll
 0005:000009fc       __imp_??0bad_cast@std@@QAA@ABV01@@Z 1032a9fc     MSVCRTD:MSVCR110D.dll
 0005:00000a00       __imp_??1bad_cast@std@@UAA@XZ 1032aa00     MSVCRTD:MSVCR110D.dll
 0005:00000a04       __imp_??0bad_cast@std@@QAA@PBD@Z 1032aa04     MSVCRTD:MSVCR110D.dll
 0005:00000a08       __imp_strrchr              1032aa08     MSVCRTD:MSVCR110D.dll
 0005:00000a0c       __imp_strncmp              1032aa0c     MSVCRTD:MSVCR110D.dll
 0005:00000a10       __imp_atoi                 1032aa10     MSVCRTD:MSVCR110D.dll
 0005:00000a14       __imp__strnicmp            1032aa14     MSVCRTD:MSVCR110D.dll
 0005:00000a18       __imp_fputs                1032aa18     MSVCRTD:MSVCR110D.dll
 0005:00000a1c       __imp__snprintf            1032aa1c     MSVCRTD:MSVCR110D.dll
 0005:00000a20       __imp___RTDynamicCast      1032aa20     MSVCRTD:MSVCR110D.dll
 0005:00000a24       __imp_sscanf               1032aa24     MSVCRTD:MSVCR110D.dll
 0005:00000a28       __imp__invalid_parameter   1032aa28     MSVCRTD:MSVCR110D.dll
 0005:00000a2c       __imp__CrtDbgReportW       1032aa2c     MSVCRTD:MSVCR110D.dll
 0005:00000a30       __imp_fgets                1032aa30     MSVCRTD:MSVCR110D.dll
 0005:00000a34       __imp_fclose               1032aa34     MSVCRTD:MSVCR110D.dll
 0005:00000a38       __imp_fprintf              1032aa38     MSVCRTD:MSVCR110D.dll
 0005:00000a3c       __imp_fopen                1032aa3c     MSVCRTD:MSVCR110D.dll
 0005:00000a40       __imp_??_V@YAXPAX@Z        1032aa40     MSVCRTD:MSVCR110D.dll
 0005:00000a44       __imp_??_U@YAPAXI@Z        1032aa44     MSVCRTD:MSVCR110D.dll
 0005:00000a48       __imp_puts                 1032aa48     MSVCRTD:MSVCR110D.dll
 0005:00000a4c       __imp_exit                 1032aa4c     MSVCRTD:MSVCR110D.dll
 0005:00000a50       __imp___C_specific_handler 1032aa50     MSVCRTD:MSVCR110D.dll
 0005:00000a54       __imp_sprintf              1032aa54     MSVCRTD:MSVCR110D.dll
 0005:00000a58       __imp_vprintf              1032aa58     MSVCRTD:MSVCR110D.dll
 0005:00000a5c       __imp_strcat               1032aa5c     MSVCRTD:MSVCR110D.dll
 0005:00000a60       __imp_strncpy              1032aa60     MSVCRTD:MSVCR110D.dll
 0005:00000a64       __imp_getenv               1032aa64     MSVCRTD:MSVCR110D.dll
 0005:00000a68       __imp_memcmp               1032aa68     MSVCRTD:MSVCR110D.dll
 0005:00000a6c       __imp_memchr               1032aa6c     MSVCRTD:MSVCR110D.dll
 0005:00000a70       __imp_printf               1032aa70     MSVCRTD:MSVCR110D.dll
 0005:00000a74       __imp_memmove              1032aa74     MSVCRTD:MSVCR110D.dll
 0005:00000a78       __imp__CxxThrowException   1032aa78     MSVCRTD:MSVCR110D.dll
 0005:00000a7c       __imp_ceil                 1032aa7c     MSVCRTD:MSVCR110D.dll
 0005:00000a80       __imp_cos                  1032aa80     MSVCRTD:MSVCR110D.dll
 0005:00000a84       __imp_sin                  1032aa84     MSVCRTD:MSVCR110D.dll
 0005:00000a88       __imp_sqrt                 1032aa88     MSVCRTD:MSVCR110D.dll
 0005:00000a8c       __imp_floor                1032aa8c     MSVCRTD:MSVCR110D.dll
 0005:00000a90       __imp_atan2                1032aa90     MSVCRTD:MSVCR110D.dll
 0005:00000a94       __imp_tan                  1032aa94     MSVCRTD:MSVCR110D.dll
 0005:00000a98       __imp_log                  1032aa98     MSVCRTD:MSVCR110D.dll
 0005:00000a9c       __imp_pow                  1032aa9c     MSVCRTD:MSVCR110D.dll
 0005:00000aa0       __imp_fabs                 1032aaa0     MSVCRTD:MSVCR110D.dll
 0005:00000aa4       __imp_memcpy               1032aaa4     MSVCRTD:MSVCR110D.dll
 0005:00000aa8       __imp__purecall            1032aaa8     MSVCRTD:MSVCR110D.dll
 0005:00000aac       __imp_malloc               1032aaac     MSVCRTD:MSVCR110D.dll
 0005:00000ab0       __imp___CxxFrameHandler3   1032aab0     MSVCRTD:MSVCR110D.dll
 0005:00000ab4       __imp__wassert             1032aab4     MSVCRTD:MSVCR110D.dll
 0005:00000ab8       __imp_free                 1032aab8     MSVCRTD:MSVCR110D.dll
 0005:00000abc       __imp_??3@YAXPAX@Z         1032aabc     MSVCRTD:MSVCR110D.dll
 0005:00000ac0       __imp_strcpy               1032aac0     MSVCRTD:MSVCR110D.dll
 0005:00000ac4       __imp_??2@YAPAXI@Z         1032aac4     MSVCRTD:MSVCR110D.dll
 0005:00000ac8       __imp_memset               1032aac8     MSVCRTD:MSVCR110D.dll
 0005:00000acc       __imp__mkdir               1032aacc     MSVCRTD:MSVCR110D.dll
 0005:00000acc       __imp_mkdir                1032aacc     MSVCRTD:MSVCR110D.dll
 0005:00000ad0       __imp_access               1032aad0     MSVCRTD:MSVCR110D.dll
 0005:00000ad0       __imp__access              1032aad0     MSVCRTD:MSVCR110D.dll
 0005:00000ad4       __imp__amsg_exit           1032aad4     MSVCRTD:MSVCR110D.dll
 0005:00000ad8       __imp_stricmp              1032aad8     MSVCRTD:MSVCR110D.dll
 0005:00000ad8       __imp__stricmp             1032aad8     MSVCRTD:MSVCR110D.dll
 0005:00000adc       \177MSVCR110D_NULL_THUNK_DATA 1032aadc     MSVCRTD:MSVCR110D.dll
 0005:00000b50       __imp_SHGetSpecialFolderPathA 1032ab50     shell32:SHELL32.dll
 0005:00000b54       \177SHELL32_NULL_THUNK_DATA 1032ab54     shell32:SHELL32.dll
 0005:00000b80       __imp_CbReturnToHost       1032ab80     cbacks.nt:cbacks.nt.dll
 0005:00000b84       __imp_CbIsReturnToHost     1032ab84     cbacks.nt:cbacks.nt.dll
 0005:00000b88       __imp_CbRemoveCallAtThreadExit 1032ab88     cbacks.nt:cbacks.nt.dll
 0005:00000b8c       __imp_CbCallAtThreadExit   1032ab8c     cbacks.nt:cbacks.nt.dll
 0005:00000b90       \177cbacks.nt_NULL_THUNK_DATA 1032ab90     cbacks.nt:cbacks.nt.dll
 0005:00000bbc       __imp_PeLdrGetPageSize     1032abbc     peldr.nt:peldr.nt.dll
 0005:00000bc0       __imp_PeLdrGetSystemDirectoryA 1032abc0     peldr.nt:peldr.nt.dll
 0005:00000bc4       __imp_PeLdrGetCurrentTeb   1032abc4     peldr.nt:peldr.nt.dll
 0005:00000bc8       \177peldr.nt_NULL_THUNK_DATA 1032abc8     peldr.nt:peldr.nt.dll
 0005:00000bf4       __imp_LogPrint             1032abf4     supp.nt:supp.nt.dll
 0005:00000bf8       __imp_LogInfo              1032abf8     supp.nt:supp.nt.dll
 0005:00000bfc       __imp_CfgGetString         1032abfc     supp.nt:supp.nt.dll
 0005:00000c00       __imp_LogErr               1032ac00     supp.nt:supp.nt.dll
 0005:00000c04       \177supp.nt_NULL_THUNK_DATA 1032ac04     supp.nt:supp.nt.dll
 0005:00000c30       __imp_SetFPUCW             1032ac30     x86_emu:x86_emu.dll
 0005:00000c34       __imp_GetFPUCW             1032ac34     x86_emu:x86_emu.dll
 0005:00000c38       \177x86_emu_NULL_THUNK_DATA 1032ac38     x86_emu:x86_emu.dll

 entry point at        0001:00118370

